(dp0
S'barneys_502160632.jpg'
p1
I1124
sS'nordstrom_496654.jpg'
p2
I238
sS'nordstrom_876554.jpg'
p3
I833
sS'barneys_503796771.jpg'
p4
I2293
sS'barneys_503209037.jpg'
p5
I2214
sS'barneys_502988449.jpg'
p6
I509
sS'nordstrom_383434.jpg'
p7
I2343
sS'nordstrom_815325_1.jpg'
p8
I1546
sS'saks_0442271938529.jpg'
p9
I2526
sS'saks_0442235936370.jpg'
p10
I2898
sS'nordstrom_684013.jpg'
p11
I1510
sS'nordstrom_1014030.jpg'
p12
I583
sS'saks_0469647581790.jpg'
p13
I3190
sS'nordstrom_893535.jpg'
p14
I3088
sS'nordstrom_1013564.jpg'
p15
I573
sS'saks_0442314044484.jpg'
p16
I1003
sS'saks_0448835683065.jpg'
p17
I1018
sS'saks_0440434380352.jpg'
p18
I1758
sS'barneys_503082981.jpg'
p19
I1160
sS'barneys_503687105.jpg'
p20
I2229
sS'saks_0448835623412.jpg'
p21
I1948
sS'nordstrom_826109.jpg'
p22
I3007
sS'nordstrom_885604.jpg'
p23
I3078
sS'barneys_503654196.jpg'
p24
I2221
sS'nordstrom_1011135_1.jpg'
p25
I1333
sS'barneys_503176991.jpg'
p26
I2673
sS'barneys_503694673.jpg'
p27
I2954
sS'saks_0469642248865.jpg'
p28
I2615
sS'barneys_503187336.jpg'
p29
I2211
sS'nordstrom_862875.jpg'
p30
I3043
sS'nordstrom_909074.jpg'
p31
I2356
sS'nordstrom_1014016.jpg'
p32
I582
sS'barneys_503341097.jpg'
p33
I101
sS'saks_0469608410077.jpg'
p34
I1082
sS'nordstrom_79891.jpg'
p35
I280
sS'nordstrom_1001538.jpg'
p36
I1296
sS'saks_0400086708128.jpg'
p37
I2405
sS'nordstrom_927845.jpg'
p38
I2858
sS'saks_0441968050704.jpg'
p39
I2890
sS'saks_0469644299230.jpg'
p40
I2619
sS'nordstrom_465652.jpg'
p41
I697
sS'barneys_503654180.jpg'
p42
I2220
sS'barneys_503662061.jpg'
p43
I1259
sS'barneys_502993931.jpg'
p44
I1159
sS'saks_0469668552861.jpg'
p45
I483
sS'nordstrom_1032963.jpg'
p46
I618
sS'nordstrom_277346_34.jpg'
p47
I667
sS'saks_0469669472014.jpg'
p48
I2197
sS'nordstrom_1055284.jpg'
p49
I634
sS'saks_0454382428080.jpg'
p50
I2154
sS'nordstrom_1013480.jpg'
p51
I2305
sS'saks_0469638230843.jpg'
p52
I1088
sS'nordstrom_571101.jpg'
p53
I244
sS'nordstrom_851242.jpg'
p54
I3030
sS'nordstrom_276725.jpg'
p55
I663
sS'saks_0454318301296.jpg'
p56
I2562
sS'barneys_503502790.jpg'
p57
I1200
sS'saks_0469607834539.jpg'
p58
I1078
sS'nordstrom_1014258_1.jpg'
p59
I2311
sS'saks_0448885162428.jpg'
p60
I406
sS'saks_0469647414890.jpg'
p61
I478
sS'nordstrom_844204.jpg'
p62
I797
sS'nordstrom_895675_1.jpg'
p63
I864
sS'nordstrom_1015836.jpg'
p64
I1345
sS'nordstrom_762811.jpg'
p65
I748
sS'saks_0452428806540.jpg'
p66
I2020
sS'nordstrom_1018346.jpg'
p67
I2712
sS'saks_0441938898213.jpg'
p68
I1830
sS'nordstrom_460144.jpg'
p69
I694
sS'nordstrom_1014094.jpg'
p70
I584
sS'saks_0448883067596.jpg'
p71
I1024
sS'saks_0452435117363.jpg'
p72
I2029
sS'nordstrom_859235.jpg'
p73
I808
sS'saks_0441937331162.jpg'
p74
I2492
sS'nordstrom_824556.jpg'
p75
I786
sS'nordstrom_999182_3.jpg'
p76
I1720
sS'nordstrom_865410.jpg'
p77
I821
sS'nordstrom_492318_1.jpg'
p78
I235
sS'saks_0400086745407.jpg'
p79
I2412
sS'nordstrom_944332_1.jpg'
p80
I883
sS'barneys_503687261.jpg'
p81
I2231
sS'saks_0437837934107.jpg'
p82
I2428
sS'saks_0468247751862.jpg'
p83
I2584
sS'barneys_503643378.jpg'
p84
I544
sS'saks_0445228829932.jpg'
p85
I387
sS'nordstrom_837180.jpg'
p86
I1569
sS'nordstrom_353636.jpg'
p87
I209
sS'barneys_503544807.jpg'
p88
I146
sS'barneys_503729891.jpg'
p89
I2249
sS'barneys_503750858.jpg'
p90
I2266
sS'saks_0468237201681.jpg'
p91
I2165
sS'saks_0441929223857.jpg'
p92
I1805
sS'nordstrom_476789.jpg'
p93
I2745
sS'saks_0448876541676.jpg'
p94
I1990
sS'saks_0469636949488.jpg'
p95
I3178
sS'saks_0462234491403.jpg'
p96
I3168
sS'saks_0442037041333.jpg'
p97
I3122
sS'saks_0442062150987.jpg'
p98
I997
sS'nordstrom_943219.jpg'
p99
I3094
sS'saks_0442314046259.jpg'
p100
I1004
sS'saks_0454343121760.jpg'
p101
I2146
sS'saks_0453438309427.jpg'
p102
I1036
sS'saks_0437852619577.jpg'
p103
I968
sS'saks_0446604348832.jpg'
p104
I389
sS'saks_0448835946139.jpg'
p105
I1973
sS'saks_0437844902632.jpg'
p106
I2429
sS'nordstrom_870960.jpg'
p107
I1637
sS'nordstrom_1064918.jpg'
p108
I639
sS'nordstrom_553591.jpg'
p109
I242
sS'nordstrom_842371.jpg'
p110
I2794
sS'barneys_503662157.jpg'
p111
I1260
sS'nordstrom_590894.jpg'
p112
I2992
sS'saks_0413436568066.jpg'
p113
I938
sS'barneys_503643216.jpg'
p114
I540
sS'barneys_503119505.jpg'
p115
I68
sS'saks_0442014440302.jpg'
p116
I1879
sS'nordstrom_1020644.jpg'
p117
I1353
sS'saks_0452537134770.jpg'
p118
I3151
sS'nordstrom_851587.jpg'
p119
I3032
sS'barneys_503855407.jpg'
p120
I2963
sS'nordstrom_454111.jpg'
p121
I222
sS'saks_0469608409880.jpg'
p122
I1081
sS'saks_0400086753824.jpg'
p123
I1740
sS'barneys_501307987.jpg'
p124
I7
sS'barneys_503732775.jpg'
p125
I2253
sS'barneys_503405535.jpg'
p126
I122
sS'saks_0400086596757.jpg'
p127
I3099
sS'saks_0469641706793.jpg'
p128
I477
sS'barneys_503776596.jpg'
p129
I2275
sS'saks_0452428806830.jpg'
p130
I2023
sS'barneys_503592352.jpg'
p131
I167
sS'nordstrom_850059.jpg'
p132
I1598
sS'nordstrom_849445.jpg'
p133
I2806
sS'barneys_503776756.jpg'
p134
I2281
sS'saks_0448835625324.jpg'
p135
I1952
sS'nordstrom_857210.jpg'
p136
I1615
sS'saks_0440929079013.jpg'
p137
I3109
sS'nordstrom_986976.jpg'
p138
I1709
sS'barneys_502839177.jpg'
p139
I47
sS'saks_0442225344475.jpg'
p140
I378
sS'nordstrom_1023343.jpg'
p141
I596
sS'saks_0446634373187.jpg'
p142
I2540
sS'barneys_501438091.jpg'
p143
I8
sS'saks_0400086753941.jpg'
p144
I1744
sS'barneys_503765460.jpg'
p145
I1272
sS'saks_0471968085222.jpg'
p146
I2650
sS'nordstrom_859559.jpg'
p147
I3040
sS'saks_0400086701347.jpg'
p148
I1737
sS'nordstrom_358277.jpg'
p149
I683
sS'saks_0452480127058.jpg'
p150
I2054
sS'saks_0442351948301.jpg'
p151
I385
sS'saks_0446613330828.jpg'
p152
I391
sS'barneys_503234551.jpg'
p153
I1171
sS'nordstrom_889050.jpg'
p154
I853
sS'nordstrom_696534.jpg'
p155
I254
sS'saks_0452428806656.jpg'
p156
I2021
sS'nordstrom_834965.jpg'
p157
I294
sS'saks_0454318335611.jpg'
p158
I1043
sS'nordstrom_1013819.jpg'
p159
I576
sS'saks_0468293047315.jpg'
p160
I452
sS'saks_0469692986588.jpg'
p161
I489
sS'nordstrom_828377.jpg'
p162
I3010
sS'nordstrom_703538.jpg'
p163
I1515
sS'nordstrom_687994.jpg'
p164
I3000
sS'nordstrom_879037.jpg'
p165
I3074
sS'nordstrom_838226.jpg'
p166
I297
sS'saks_0441903452419.jpg'
p167
I2481
sS'saks_0437837933278.jpg'
p168
I2427
sS'barneys_503747682.jpg'
p169
I1270
sS'saks_0442314058887.jpg'
p170
I1005
sS'nordstrom_821817_1.jpg'
p171
I2776
sS'saks_0469640701256.jpg'
p172
I2609
sS'nordstrom_970629.jpg'
p173
I897
sS'nordstrom_1002774_1.jpg'
p174
I1313
sS'barneys_503502860.jpg'
p175
I1203
sS'barneys_502988800.jpg'
p176
I1158
sS'nordstrom_277346.jpg'
p177
I665
sS'nordstrom_893271.jpg'
p178
I1659
sS'saks_0446644637613.jpg'
p179
I2542
sS'nordstrom_967315.jpg'
p180
I2371
sS'nordstrom_915972.jpg'
p181
I874
sS'saks_0448835620046.jpg'
p182
I1942
sS'nordstrom_1000260.jpg'
p183
I2300
sS'barneys_503549687.jpg'
p184
I154
sS'saks_0441935353753.jpg'
p185
I3114
sS'nordstrom_354620_2.jpg'
p186
I210
sS'barneys_503543810.jpg'
p187
I144
sS'nordstrom_895985.jpg'
p188
I3089
sS'nordstrom_832846.jpg'
p189
I3013
sS'nordstrom_354544.jpg'
p190
I682
sS'saks_0441914334988.jpg'
p191
I342
sS'nordstrom_1010750.jpg'
p192
I1331
sS'saks_0469642871223.jpg'
p193
I2937
sS'saks_0448835680026.jpg'
p194
I1017
sS'saks_0441937330790.jpg'
p195
I2491
sS'saks_0441929457665.jpg'
p196
I1811
sS'nordstrom_934029.jpg'
p197
I2860
sS'nordstrom_495208.jpg'
p198
I237
sS'nordstrom_937023.jpg'
p199
I1685
sS'saks_0454318325346.jpg'
p200
I2139
sS'nordstrom_859272.jpg'
p201
I2813
sS'nordstrom_1054631.jpg'
p202
I1426
sS'saks_0441937336679.jpg'
p203
I349
sS'nordstrom_1018352.jpg'
p204
I2313
sS'saks_0448882661702.jpg'
p205
I1999
sS'nordstrom_1013894.jpg'
p206
I579
sS'nordstrom_875194.jpg'
p207
I2846
sS'nordstrom_871204.jpg'
p208
I2835
sS'nordstrom_801235.jpg'
p209
I284
sS'saks_0468634821505.jpg'
p210
I2169
sS'barneys_503573753.jpg'
p211
I1221
sS'barneys_503764129.jpg'
p212
I555
sS'saks_0437852620528.jpg'
p213
I969
sS'barneys_503571441.jpg'
p214
I1217
sS'nordstrom_800793.jpg'
p215
I756
sS'nordstrom_202000.jpg'
p216
I657
sS'nordstrom_1034263.jpg'
p217
I2730
sS'saks_0452546600501.jpg'
p218
I2110
sS'barneys_503743695.jpg'
p219
I2264
sS'saks_0448835622989.jpg'
p220
I1947
sS'saks_0452403010603.jpg'
p221
I411
sS'nordstrom_888508.jpg'
p222
I3082
sS'saks_0471945168306.jpg'
p223
I496
sS'saks_0441973163543.jpg'
p224
I1863
sS'nordstrom_869790.jpg'
p225
I304
sS'saks_0452502454049.jpg'
p226
I2913
sS'nordstrom_316232.jpg'
p227
I201
sS'saks_0442314043548.jpg'
p228
I2528
sS'barneys_503732455.jpg'
p229
I2251
sS'saks_0442068352132.jpg'
p230
I372
sS'nordstrom_934031.jpg'
p231
I2861
sS'barneys_503642927.jpg'
p232
I1241
sS'nordstrom_1002709.jpg'
p233
I1304
sS'nordstrom_1025645.jpg'
p234
I1362
sS'barneys_502914238.jpg'
p235
I58
sS'nordstrom_804536.jpg'
p236
I1534
sS'nordstrom_1056620.jpg'
p237
I179
sS'barneys_503176863.jpg'
p238
I1162
sS'saks_0440990020921.jpg'
p239
I1774
sS'barneys_503208471.jpg'
p240
I1168
sS'nordstrom_1037724.jpg'
p241
I1396
sS'saks_0440929056045.jpg'
p242
I1769
sS'barneys_503543730.jpg'
p243
I141
sS'nordstrom_869129.jpg'
p244
I3063
sS'barneys_503544695.jpg'
p245
I1210
sS'saks_0442044721167.jpg'
p246
I1883
sS'saks_0469647577748.jpg'
p247
I2190
sS'nordstrom_1029016_1.jpg'
p248
I610
sS'nordstrom_86715.jpg'
p249
I822
sS'saks_0469637010286.jpg'
p250
I3180
sS'nordstrom_608560.jpg'
p251
I2993
sS'nordstrom_596727.jpg'
p252
I714
sS'nordstrom_1025530.jpg'
p253
I601
sS'saks_0441938897230.jpg'
p254
I1829
sS'nordstrom_465300.jpg'
p255
I1482
sS'nordstrom_871836_1.jpg'
p256
I2842
sS'nordstrom_1016391.jpg'
p257
I171
sS'nordstrom_263948_39.jpg'
p258
I189
sS'nordstrom_827707.jpg'
p259
I2782
sS'saks_0456737088390.jpg'
p260
I2568
sS'saks_0440990005584.jpg'
p261
I1773
sS'nordstrom_961264.jpg'
p262
I1692
sS'saks_0468229939059.jpg'
p263
I3170
sS'saks_0452488255692.jpg'
p264
I413
sS'saks_0469647578363.jpg'
p265
I2191
sS'saks_0468242502506.jpg'
p266
I2580
sS'saks_0448885303401.jpg'
p267
I407
sS'nordstrom_1033908.jpg'
p268
I2728
sS'saks_0445228829956.jpg'
p269
I388
sS'nordstrom_934070_1.jpg'
p270
I877
sS'saks_0452428816471.jpg'
p271
I2547
sS'barneys_502817767.jpg'
p272
I2664
sS'nordstrom_1007036.jpg'
p273
I1325
sS'nordstrom_856365_1.jpg'
p274
I1612
sS'nordstrom_958620.jpg'
p275
I2368
sS'nordstrom_1002763.jpg'
p276
I561
sS'saks_0441206289163.jpg'
p277
I1777
sS'saks_0469639921801.jpg'
p278
I472
sS'nordstrom_263948_36.jpg'
p279
I187
sS'barneys_503401314.jpg'
p280
I116
sS'saks_0437852618808.jpg'
p281
I2442
sS'saks_0442095402824.jpg'
p282
I1890
sS'saks_0442003448968.jpg'
p283
I363
sS'saks_0448876542758.jpg'
p284
I1992
sS'saks_0437837659383.jpg'
p285
I3104
sS'nordstrom_812426.jpg'
p286
I1538
sS'nordstrom_1030723.jpg'
p287
I2318
sS'saks_0453476733208.jpg'
p288
I1037
sS'nordstrom_1037013.jpg'
p289
I2321
sS'nordstrom_514451_4.jpg'
p290
I705
sS'saks_0452472995740.jpg'
p291
I2052
sS'saks_0469602888186.jpg'
p292
I2599
sS'nordstrom_34007.jpg'
p293
I206
sS'saks_0452546615413.jpg'
p294
I2120
sS'saks_0452598282601.jpg'
p295
I2132
sS'nordstrom_1042866.jpg'
p296
I1407
sS'saks_0469637009839.jpg'
p297
I3179
sS'barneys_503292935.jpg'
p298
I1178
sS'nordstrom_825787.jpg'
p299
I1551
sS'saks_0471946397941.jpg'
p300
I2645
sS'saks_0453438316371.jpg'
p301
I2134
sS'nordstrom_1039584.jpg'
p302
I2978
sS'nordstrom_1018353.jpg'
p303
I2314
sS'nordstrom_326616_1.jpg'
p304
I675
sS'nordstrom_1049931_1.jpg'
p305
I1411
sS'nordstrom_1059241.jpg'
p306
I1437
sS'barneys_501724129.jpg'
p307
I14
sS'saks_0454336512339.jpg'
p308
I2564
sS'saks_0469652778291.jpg'
p309
I3194
sS'saks_0413445502839.jpg'
p310
I951
sS'nordstrom_668731.jpg'
p311
I1506
sS'barneys_503765812.jpg'
p312
I2271
sS'nordstrom_861348.jpg'
p313
I3042
sS'barneys_503688141.jpg'
p314
I1264
sS'nordstrom_596727_4.jpg'
p315
I715
sS'barneys_503374933.jpg'
p316
I107
sS'nordstrom_717080.jpg'
p317
I737
sS'nordstrom_871741.jpg'
p318
I828
sS'saks_0459213781358.jpg'
p319
I2161
sS'nordstrom_876087_2.jpg'
p320
I1639
sS'nordstrom_807912_3.jpg'
p321
I759
sS'nordstrom_883713.jpg'
p322
I1651
sS'saks_0469646102323.jpg'
p323
I2941
sS'saks_0469637005879.jpg'
p324
I2180
sS'nordstrom_759982.jpg'
p325
I1522
sS'nordstrom_1013893.jpg'
p326
I578
sS'nordstrom_1002713.jpg'
p327
I1307
sS'barneys_503519798.jpg'
p328
I1208
sS'saks_0452597285986.jpg'
p329
I2129
sS'saks_0441942745350.jpg'
p330
I1837
sS'saks_0452481598338.jpg'
p331
I2057
sS'saks_0413445493588.jpg'
p332
I945
sS'nordstrom_738124.jpg'
p333
I742
sS'nordstrom_94074.jpg'
p334
I309
sS'saks_0441930707667.jpg'
p335
I1813
sS'saks_0400086753870.jpg'
p336
I1742
sS'nordstrom_834918.jpg'
p337
I1562
sS'nordstrom_1037376_1.jpg'
p338
I2328
sS'saks_0441999065180.jpg'
p339
I1872
sS'nordstrom_886119.jpg'
p340
I1656
sS'barneys_503653488.jpg'
p341
I169
sS'barneys_155028469.jpg'
p342
I1107
sS'saks_0469602851128.jpg'
p343
I1076
sS'saks_0442074694653.jpg'
p344
I373
sS'saks_0452445886662.jpg'
p345
I2039
sS'barneys_502849827.jpg'
p346
I52
sS'nordstrom_865107.jpg'
p347
I3044
sS'saks_0468200456445.jpg'
p348
I450
sS'nordstrom_711980.jpg'
p349
I730
sS'saks_0468248695554.jpg'
p350
I2585
sS'saks_0402320525636.jpg'
p351
I1749
sS'saks_0448835675312.jpg'
p352
I1970
sS'barneys_502816430.jpg'
p353
I44
sS'nordstrom_1050389.jpg'
p354
I1415
sS'saks_0441947840333.jpg'
p355
I1853
sS'barneys_503339957.jpg'
p356
I517
sS'saks_0441998469934.jpg'
p357
I359
sS'saks_0441929226360.jpg'
p358
I1807
sS'saks_0437853530864.jpg'
p359
I2444
sS'nordstrom_996678.jpg'
p360
I1718
sS'nordstrom_972106.jpg'
p361
I899
sS'nordstrom_611099.jpg'
p362
I2996
sS'barneys_503654588.jpg'
p363
I1255
sS'saks_0469642872244.jpg'
p364
I2938
sS'nordstrom_837883.jpg'
p365
I1573
sS'saks_0448835628318.jpg'
p366
I1954
sS'saks_0469633205020.jpg'
p367
I2174
sS'saks_0441944557579.jpg'
p368
I1840
sS'nordstrom_1044657.jpg'
p369
I626
sS'saks_0442299329705.jpg'
p370
I1906
sS'saks_0400086880595.jpg'
p371
I926
sS'saks_0469637156915.jpg'
p372
I2181
sS'nordstrom_458120.jpg'
p373
I225
sS'nordstrom_586175.jpg'
p374
I710
sS'barneys_503200985.jpg'
p375
I73
sS'saks_0437848382324.jpg'
p376
I2434
sS'nordstrom_974464_2.jpg'
p377
I904
sS'barneys_503765924.jpg'
p378
I2689
sS'nordstrom_1016478.jpg'
p379
I173
sS'saks_0442331707010.jpg'
p380
I1914
sS'saks_0452546612054.jpg'
p381
I2118
sS'saks_0469641454304.jpg'
p382
I2936
sS'nordstrom_454111_1.jpg'
p383
I223
sS'barneys_501413993.jpg'
p384
I1115
sS'barneys_503325118.jpg'
p385
I83
sS'nordstrom_1033770.jpg'
p386
I2974
sS'nordstrom_836983.jpg'
p387
I1566
sS'nordstrom_826097.jpg'
p388
I1553
sS'barneys_502845103.jpg'
p389
I49
sS'barneys_503645338.jpg'
p390
I168
sS'barneys_502896619.jpg'
p391
I57
sS'saks_0442271934002.jpg'
p392
I2525
sS'nordstrom_1008675.jpg'
p393
I2969
sS'nordstrom_801116.jpg'
p394
I1528
sS'nordstrom_853660.jpg'
p395
I802
sS'saks_0454343118678.jpg'
p396
I2567
sS'nordstrom_915651.jpg'
p397
I2361
sS'saks_0469652720931.jpg'
p398
I3191
sS'saks_0469667430658.jpg'
p399
I2195
sS'saks_0442296885198.jpg'
p400
I381
sS'barneys_503407829.jpg'
p401
I521
sS'nordstrom_966663.jpg'
p402
I2370
sS'nordstrom_636464.jpg'
p403
I246
sS'saks_0437852615937.jpg'
p404
I2439
sS'nordstrom_828371.jpg'
p405
I788
sS'saks_0413445490853.jpg'
p406
I940
sS'nordstrom_897254.jpg'
p407
I868
sS'nordstrom_1026473.jpg'
p408
I1364
sS'barneys_502550880.jpg'
p409
I1142
sS'saks_0469642456123.jpg'
p410
I2616
sS'barneys_503185176.jpg'
p411
I2210
sS'nordstrom_1050977.jpg'
p412
I629
sS'saks_0442248164432.jpg'
p413
I2899
sS'nordstrom_263948_38.jpg'
p414
I188
sS'nordstrom_970630_1.jpg'
p415
I898
sS'saks_0459235951883.jpg'
p416
I2574
sS'nordstrom_895675_2.jpg'
p417
I865
sS'barneys_502192370.jpg'
p418
I1126
sS'nordstrom_1032813.jpg'
p419
I1381
sS'saks_0457151250028.jpg'
p420
I2160
sS'barneys_502890026.jpg'
p421
I1154
sS'nordstrom_1040688.jpg'
p422
I625
sS'saks_0469610113928.jpg'
p423
I2926
sS'nordstrom_303641.jpg'
p424
I193
sS'nordstrom_1001532.jpg'
p425
I2697
sS'saks_0452503487183.jpg'
p426
I2079
sS'nordstrom_848543.jpg'
p427
I2801
sS'saks_0452546605599.jpg'
p428
I2112
sS'nordstrom_1037366_2.jpg'
p429
I2326
sS'barneys_503662045.jpg'
p430
I1258
sS'saks_0452546606473.jpg'
p431
I2113
sS'saks_0441287939797.jpg'
p432
I1792
sS'saks_0441213528453.jpg'
p433
I1783
sS'nordstrom_867487.jpg'
p434
I2830
sS'saks_0452483690160.jpg'
p435
I1031
sS'saks_0468255564362.jpg'
p436
I2594
sS'barneys_503177168.jpg'
p437
I2205
sS'nordstrom_848698.jpg'
p438
I1596
sS'saks_0462234488625.jpg'
p439
I1053
sS'saks_0442231577607.jpg'
p440
I2514
sS'saks_0469674134303.jpg'
p441
I484
sS'barneys_503785067.jpg'
p442
I1284
sS'barneys_502621181.jpg'
p443
I1144
sS'nordstrom_456525_1.jpg'
p444
I2741
sS'barneys_503654426.jpg'
p445
I1249
sS'saks_0448835697000.jpg'
p446
I2911
sS'barneys_503502806.jpg'
p447
I1201
sS'saks_0448835683942.jpg'
p448
I3142
sS'saks_0441944450351.jpg'
p449
I991
sS'saks_0440445370946.jpg'
p450
I1762
sS'nordstrom_1014575.jpg'
p451
I1344
sS'nordstrom_821415.jpg'
p452
I779
sS'nordstrom_845339.jpg'
p453
I1592
sS'nordstrom_1013411.jpg'
p454
I2304
sS'barneys_503811437.jpg'
p455
I1285
sS'saks_0454374117602.jpg'
p456
I436
sS'saks_0440987837136.jpg'
p457
I1772
sS'saks_0468242508454.jpg'
p458
I2582
sS'saks_0448835667850.jpg'
p459
I1968
sS'saks_0441931070463.jpg'
p460
I1814
sS'nordstrom_982546.jpg'
p461
I2875
sS'saks_0454332672068.jpg'
p462
I1044
sS'barneys_503731960.jpg'
p463
I2682
sS'saks_0441942153971.jpg'
p464
I2498
sS'nordstrom_737777.jpg'
p465
I741
sS'saks_0441988224727.jpg'
p466
I353
sS'barneys_503498502.jpg'
p467
I134
sS'saks_0440931295623.jpg'
p468
I975
sS'saks_0446635527619.jpg'
p469
I1935
sS'saks_0441937329909.jpg'
p470
I2490
sS'saks_0452537132875.jpg'
p471
I2102
sS'nordstrom_861628.jpg'
p472
I813
sS'nordstrom_884723.jpg'
p473
I843
sS'nordstrom_1001608.jpg'
p474
I2698
sS'saks_0441235404070.jpg'
p475
I329
sS'saks_0446634371930.jpg'
p476
I2539
sS'nordstrom_805142.jpg'
p477
I2768
sS'barneys_502699659.jpg'
p478
I23
sS'barneys_501659323.jpg'
p479
I11
sS'nordstrom_864409.jpg'
p480
I2818
sS'barneys_503502828.jpg'
p481
I1202
sS'nordstrom_884717.jpg'
p482
I842
sS'saks_0452446225897.jpg'
p483
I3148
sS'saks_0452537132653.jpg'
p484
I2101
sS'saks_0448876607839.jpg'
p485
I3147
sS'barneys_503558234.jpg'
p486
I537
sS'saks_0469636645953.jpg'
p487
I1083
sS'nordstrom_892959.jpg'
p488
I3086
sS'saks_0452546596132.jpg'
p489
I2108
sS'saks_0442359676855.jpg'
p490
I1918
sS'nordstrom_870951.jpg'
p491
I1636
sS'nordstrom_165601.jpg'
p492
I2335
sS'nordstrom_80914.jpg'
p493
I760
sS'nordstrom_870177.jpg'
p494
I2832
sS'nordstrom_618175.jpg'
p495
I718
sS'barneys_503642343.jpg'
p496
I1228
sS'saks_0442351913101.jpg'
p497
I1013
sS'saks_0452490849926.jpg'
p498
I2070
sS'barneys_502192396.jpg'
p499
I1127
sS'saks_0441938888498.jpg'
p500
I1825
sS'nordstrom_588624.jpg'
p501
I713
sS'saks_0441929222003.jpg'
p502
I2482
sS'nordstrom_938659.jpg'
p503
I1686
sS'saks_0442314045450.jpg'
p504
I2529
sS'nordstrom_977897.jpg'
p505
I906
sS'nordstrom_363205.jpg'
p506
I2342
sS'nordstrom_1028893.jpg'
p507
I1365
sS'barneys_503537757.jpg'
p508
I138
sS'nordstrom_1031142.jpg'
p509
I2320
sS'saks_0440422329967.jpg'
p510
I317
sS'saks_0448885290022.jpg'
p511
I2004
sS'saks_0452490827153.jpg'
p512
I2069
sS'saks_0469675702099.jpg'
p513
I1102
sS'saks_0440479539630.jpg'
p514
I2456
sS'saks_0448813240457.jpg'
p515
I1939
sS'saks_0452446208104.jpg'
p516
I2042
sS'nordstrom_867365.jpg'
p517
I3050
sS'barneys_501498090.jpg'
p518
I9
sS'saks_0448899071815.jpg'
p519
I2008
sS'nordstrom_1021421.jpg'
p520
I1355
sS'nordstrom_75512.jpg'
p521
I270
sS'saks_0441949456099.jpg'
p522
I2505
sS'saks_0441213520501.jpg'
p523
I2476
sS'saks_0445228829291.jpg'
p524
I1923
sS'saks_0454382428981.jpg'
p525
I2156
sS'saks_0452472294546.jpg'
p526
I2051
sS'nordstrom_839735.jpg'
p527
I1581
sS'barneys_503177488.jpg'
p528
I72
sS'barneys_503341017.jpg'
p529
I97
sS'nordstrom_878747.jpg'
p530
I836
sS'nordstrom_612254.jpg'
p531
I1492
sS'nordstrom_998790.jpg'
p532
I2383
sS'saks_0471967747626.jpg'
p533
I2649
sS'saks_0442314054803.jpg'
p534
I1910
sS'saks_0452537118787.jpg'
p535
I2087
sS'nordstrom_1040291.jpg'
p536
I176
sS'nordstrom_849403_1.jpg'
p537
I2804
sS'nordstrom_877912.jpg'
p538
I1645
sS'barneys_502537583.jpg'
p539
I1138
sS'nordstrom_880833.jpg'
p540
I838
sS'barneys_503741388.jpg'
p541
I2260
sS'nordstrom_528466.jpg'
p542
I1488
sS'nordstrom_844219.jpg'
p543
I799
sS'saks_0437837912471.jpg'
p544
I960
sS'nordstrom_328582_4.jpg'
p545
I1465
sS'nordstrom_105406.jpg'
p546
I1425
sS'saks_0442044719089.jpg'
p547
I2511
sS'nordstrom_953020.jpg'
p548
I2367
sS'barneys_503550383.jpg'
p549
I158
sS'barneys_502561006.jpg'
p550
I19
sS'saks_0445228829352.jpg'
p551
I1924
sS'nordstrom_1031429.jpg'
p552
I1375
sS'barneys_503764193.jpg'
p553
I2687
sS'saks_0452446206964.jpg'
p554
I2041
sS'nordstrom_987296.jpg'
p555
I1710
sS'saks_0448899079682.jpg'
p556
I408
sS'nordstrom_1003373.jpg'
p557
I2967
sS'saks_0452537133926.jpg'
p558
I3150
sS'nordstrom_876659.jpg'
p559
I834
sS'saks_0437837931304.jpg'
p560
I965
sS'nordstrom_880839.jpg'
p561
I1648
sS'nordstrom_867215.jpg'
p562
I2828
sS'nordstrom_977683.jpg'
p563
I2871
sS'saks_0441931074027.jpg'
p564
I1817
sS'nordstrom_31100.jpg'
p565
I674
sS'nordstrom_943476.jpg'
p566
I882
sS'saks_0400086823889.jpg'
p567
I2415
sS'saks_0469648992892.jpg'
p568
I2633
sS'saks_0469644392016.jpg'
p569
I2623
sS'barneys_503291904.jpg'
p570
I514
sS'saks_0454318304006.jpg'
p571
I3160
sS'saks_0454336696541.jpg'
p572
I1045
sS'barneys_502462677.jpg'
p573
I1131
sS'barneys_502462773.jpg'
p574
I1133
sS'nordstrom_1037914.jpg'
p575
I623
sS'nordstrom_721275_1.jpg'
p576
I739
sS'nordstrom_730021.jpg'
p577
I261
sS'nordstrom_1038140.jpg'
p578
I624
sS'saks_0452546616885.jpg'
p579
I2122
sS'nordstrom_1001091.jpg'
p580
I1292
sS'nordstrom_1018323.jpg'
p581
I1349
sS'barneys_502736869.jpg'
p582
I36
sS'saks_0442235935823.jpg'
p583
I2896
sS'saks_0441948193957.jpg'
p584
I1860
sS'saks_0442037198778.jpg'
p585
I369
sS'saks_0441938895458.jpg'
p586
I1828
sS'barneys_503642215.jpg'
p587
I538
sS'saks_0469603200680.jpg'
p588
I1077
sS'nordstrom_852523.jpg'
p589
I2808
sS'nordstrom_848545.jpg'
p590
I2802
sS'saks_0441993976413.jpg'
p591
I354
sS'barneys_503643730.jpg'
p592
I2948
sS'saks_0448847956546.jpg'
p593
I1975
sS'nordstrom_83488.jpg'
p594
I293
sS'nordstrom_1006813.jpg'
p595
I567
sS'saks_0469638348111.jpg'
p596
I2183
sS'saks_0469641023944.jpg'
p597
I475
sS'saks_0469671209257.jpg'
p598
I2636
sS'barneys_503643698.jpg'
p599
I1247
sS'nordstrom_690145_8.jpg'
p600
I1513
sS'nordstrom_839128.jpg'
p601
I1580
sS'saks_0448835655802.jpg'
p602
I1966
sS'nordstrom_841756.jpg'
p603
I2792
sS'saks_0441935826462.jpg'
p604
I3116
sS'saks_0441941857955.jpg'
p605
I1835
sS'nordstrom_998760.jpg'
p606
I917
sS'saks_0441923736698.jpg'
p607
I984
sS'saks_0452441902465.jpg'
p608
I2036
sS'saks_0437837501217.jpg'
p609
I955
sS'nordstrom_746435.jpg'
p610
I268
sS'nordstrom_1002711.jpg'
p611
I1306
sS'saks_0446634366349.jpg'
p612
I1933
sS'saks_0441948192103.jpg'
p613
I1857
sS'barneys_503895023.jpg'
p614
I1287
sS'nordstrom_859588.jpg'
p615
I3041
sS'saks_0454318332443.jpg'
p616
I430
sS'nordstrom_1054986.jpg'
p617
I1429
sS'nordstrom_811627.jpg'
p618
I3005
sS'nordstrom_871518.jpg'
p619
I827
sS'nordstrom_838393.jpg'
p620
I1575
sS'saks_0440929050265.jpg'
p621
I2463
sS'saks_0441916289569.jpg'
p622
I343
sS'saks_0448835629438.jpg'
p623
I1955
sS'saks_0469637045684.jpg'
p624
I2606
sS'saks_0442296901409.jpg'
p625
I1905
sS'nordstrom_552870.jpg'
p626
I706
sS'nordstrom_1013816.jpg'
p627
I2709
sS'saks_0448835643977.jpg'
p628
I1963
sS'saks_0400086900912.jpg'
p629
I930
sS'nordstrom_1005342.jpg'
p630
I565
sS'saks_0469652876737.jpg'
p631
I3196
sS'saks_0437834261497.jpg'
p632
I2421
sS'saks_0400086682530.jpg'
p633
I923
sS'nordstrom_880809.jpg'
p634
I1646
sS'nordstrom_895305.jpg'
p635
I1661
sS'barneys_503776708.jpg'
p636
I2280
sS'nordstrom_277346_11.jpg'
p637
I666
sS'saks_0442314066318.jpg'
p638
I2531
sS'nordstrom_876586.jpg'
p639
I1641
sS'nordstrom_880821.jpg'
p640
I1647
sS'nordstrom_871036.jpg'
p641
I2834
sS'nordstrom_1052978.jpg'
p642
I1423
sS'nordstrom_902864.jpg'
p643
I1674
sS'saks_0441902370677.jpg'
p644
I330
sS'barneys_503776436.jpg'
p645
I2959
sS'saks_0452402977129.jpg'
p646
I1027
sS'barneys_502708137.jpg'
p647
I2658
sS'barneys_503550495.jpg'
p648
I161
sS'saks_0452546607647.jpg'
p649
I2115
sS'saks_0441929224199.jpg'
p650
I1806
sS'nordstrom_977761.jpg'
p651
I2874
sS'saks_0448885274954.jpg'
p652
I2002
sS'nordstrom_844168.jpg'
p653
I3025
sS'saks_0452428807240.jpg'
p654
I2024
sS'nordstrom_838214.jpg'
p655
I295
sS'nordstrom_883559.jpg'
p656
I1649
sS'nordstrom_1023671.jpg'
p657
I598
sS'saks_0440434375266.jpg'
p658
I2447
sS'nordstrom_861343.jpg'
p659
I1630
sS'nordstrom_263948_40.jpg'
p660
I190
sS'saks_0441987580039.jpg'
p661
I1866
sS'nordstrom_884814.jpg'
p662
I1655
sS'nordstrom_586177.jpg'
p663
I712
sS'nordstrom_812909.jpg'
p664
I2770
sS'barneys_503330591.jpg'
p665
I90
sS'saks_0437845536164.jpg'
p666
I2432
sS'nordstrom_1013808.jpg'
p667
I575
sS'saks_0452446210268.jpg'
p668
I2044
sS'nordstrom_89588.jpg'
p669
I305
sS'nordstrom_842029.jpg'
p670
I795
sS'saks_0452469153498.jpg'
p671
I2049
sS'nordstrom_330780.jpg'
p672
I676
sS'saks_0434752468960.jpg'
p673
I316
sS'saks_0448847965241.jpg'
p674
I1979
sS'nordstrom_738273.jpg'
p675
I743
sS'nordstrom_1014737.jpg'
p676
I2973
sS'saks_0441938923373.jpg'
p677
I3117
sS'nordstrom_460032.jpg'
p678
I693
sS'nordstrom_94074_5.jpg'
p679
I310
sS'nordstrom_856368.jpg'
p680
I1613
sS'nordstrom_303988.jpg'
p681
I1461
sS'saks_0469636588779.jpg'
p682
I2931
sS'saks_0440929069779.jpg'
p683
I1771
sS'barneys_503688269.jpg'
p684
I2237
sS'barneys_502731313.jpg'
p685
I1150
sS'saks_0448876541935.jpg'
p686
I1991
sS'nordstrom_836444.jpg'
p687
I1565
sS'saks_0448835679112.jpg'
p688
I1016
sS'barneys_503503048.jpg'
p689
I1205
sS'nordstrom_1050485.jpg'
p690
I2983
sS'nordstrom_708455.jpg'
p691
I258
sS'nordstrom_811813.jpg'
p692
I1536
sS'barneys_503463052.jpg'
p693
I1192
sS'saks_0454318341476.jpg'
p694
I431
sS'saks_0440485837492.jpg'
p695
I323
sS'saks_0440987878597.jpg'
p696
I2470
sS'nordstrom_814745.jpg'
p697
I1544
sS'nordstrom_839119.jpg'
p698
I1579
sS'nordstrom_1001797.jpg'
p699
I2964
sS'saks_0440910298959.jpg'
p700
I324
sS'saks_0452582247524.jpg'
p701
I2127
sS'barneys_503771269.jpg'
p702
I2692
sS'nordstrom_999981.jpg'
p703
I2884
sS'nordstrom_812954.jpg'
p704
I2771
sS'nordstrom_733407.jpg'
p705
I740
sS'nordstrom_870157.jpg'
p706
I824
sS'barneys_503339813.jpg'
p707
I1183
sS'nordstrom_1018439.jpg'
p708
I2715
sS'barneys_503401491.jpg'
p709
I117
sS'nordstrom_814156.jpg'
p710
I770
sS'nordstrom_832157.jpg'
p711
I792
sS'nordstrom_1051792.jpg'
p712
I631
sS'nordstrom_830720_1.jpg'
p713
I791
sS'barneys_503732336.jpg'
p714
I2685
sS'saks_0469653001749.jpg'
p715
I3198
sS'nordstrom_853548.jpg'
p716
I1606
sS'nordstrom_897226.jpg'
p717
I866
sS'saks_0453448817134.jpg'
p718
I2555
sS'saks_0468296569142.jpg'
p719
I1068
sS'nordstrom_1014003.jpg'
p720
I581
sS'nordstrom_884724.jpg'
p721
I844
sS'saks_0442231590736.jpg'
p722
I379
sS'saks_0469614985101.jpg'
p723
I2928
sS'saks_0442204782991.jpg'
p724
I377
sS'saks_0448835685564.jpg'
p725
I3144
sS'saks_0441935068893.jpg'
p726
I347
sS'nordstrom_949953_1.jpg'
p727
I887
sS'saks_0441905131916.jpg'
p728
I1796
sS'nordstrom_1023333.jpg'
p729
I593
sS'nordstrom_995444.jpg'
p730
I915
sS'saks_0452430337261.jpg'
p731
I2027
sS'saks_0437837915069.jpg'
p732
I962
sS'saks_0440434375631.jpg'
p733
I2448
sS'barneys_503246524.jpg'
p734
I1176
sS'nordstrom_859130.jpg'
p735
I3038
sS'nordstrom_866114.jpg'
p736
I3047
sS'barneys_503474922.jpg'
p737
I1194
sS'barneys_503642879.jpg'
p738
I1240
sS'nordstrom_318161.jpg'
p739
I202
sS'barneys_502765991.jpg'
p740
I41
sS'nordstrom_813527.jpg'
p741
I767
sS'nordstrom_850226.jpg'
p742
I1600
sS'nordstrom_201878.jpg'
p743
I656
sS'saks_0469644402302.jpg'
p744
I2628
sS'nordstrom_306267.jpg'
p745
I195
sS'saks_0469602883570.jpg'
p746
I2597
sS'saks_0452502454971.jpg'
p747
I2914
sS'nordstrom_837229.jpg'
p748
I1571
sS'nordstrom_1042082.jpg'
p749
I177
sS'saks_0446630973558.jpg'
p750
I2905
sS'nordstrom_972334_1.jpg'
p751
I2373
sS'nordstrom_1002710.jpg'
p752
I1305
sS'nordstrom_362026.jpg'
p753
I684
sS'nordstrom_75288.jpg'
p754
I269
sS'saks_0442028647209.jpg'
p755
I2893
sS'nordstrom_71648.jpg'
p756
I733
sS'nordstrom_1001729.jpg'
p757
I559
sS'saks_0441947891090.jpg'
p758
I1855
sS'saks_0468299952729.jpg'
p759
I454
sS'saks_0442231587484.jpg'
p760
I1898
sS'nordstrom_899477.jpg'
p761
I2351
sS'nordstrom_880922.jpg'
p762
I840
sS'barneys_503741134.jpg'
p763
I2257
sS'saks_0442248160854.jpg'
p764
I1903
sS'saks_0442231578079.jpg'
p765
I2516
sS'saks_0462296458338.jpg'
p766
I1059
sS'barneys_503776628.jpg'
p767
I2277
sS'nordstrom_1035305.jpg'
p768
I2977
sS'nordstrom_858534.jpg'
p769
I3037
sS'nordstrom_639840.jpg'
p770
I726
sS'saks_0441935353951.jpg'
p771
I3115
sS'saks_0441206289330.jpg'
p772
I978
sS'saks_0452469162810.jpg'
p773
I1030
sS'barneys_503519750.jpg'
p774
I1206
sS'barneys_503468377.jpg'
p775
I124
sS'nordstrom_994704.jpg'
p776
I2882
sS'nordstrom_1013994.jpg'
p777
I2308
sS'saks_0452546598341.jpg'
p778
I2109
sS'barneys_503187358.jpg'
p779
I2212
sS'saks_0440929058254.jpg'
p780
I1770
sS'saks_0400086605858.jpg'
p781
I918
sS'nordstrom_1026494.jpg'
p782
I603
sS'saks_0452546607463.jpg'
p783
I2114
sS'nordstrom_1007952.jpg'
p784
I1330
sS'saks_0452428813029.jpg'
p785
I2025
sS'nordstrom_475415.jpg'
p786
I2742
sS'saks_0441206289699.jpg'
p787
I1779
sS'nordstrom_1042935.jpg'
p788
I1408
sS'saks_0454318304624.jpg'
p789
I2136
sS'barneys_502817707.jpg'
p790
I2662
sS'nordstrom_868631.jpg'
p791
I3057
sS'nordstrom_867774.jpg'
p792
I3054
sS'nordstrom_978345.jpg'
p793
I1698
sS'saks_0452580421254.jpg'
p794
I422
sS'saks_0448881450505.jpg'
p795
I1995
sS'barneys_503643746.jpg'
p796
I2949
sS'nordstrom_1012329.jpg'
p797
I1337
sS'saks_0440929067867.jpg'
p798
I2467
sS'barneys_501649918.jpg'
p799
I1121
sS'saks_0448881384961.jpg'
p800
I1994
sS'nordstrom_812443.jpg'
p801
I761
sS'nordstrom_994283_1.jpg'
p802
I3097
sS'nordstrom_859561.jpg'
p803
I303
sS'nordstrom_661716.jpg'
p804
I1499
sS'barneys_503654524.jpg'
p805
I1253
sS'saks_0413445490303.jpg'
p806
I939
sS'nordstrom_1018590.jpg'
p807
I1350
sS'saks_0441253440210.jpg'
p808
I1788
sS'saks_0469648098181.jpg'
p809
I2942
sS'nordstrom_328948.jpg'
p810
I1466
sS'nordstrom_745507.jpg'
p811
I745
sS'saks_0440479543736.jpg'
p812
I2458
sS'nordstrom_866938.jpg'
p813
I2823
sS'saks_0440975286915.jpg'
p814
I327
sS'saks_0441913117155.jpg'
p815
I1801
sS'nordstrom_494338.jpg'
p816
I236
sS'barneys_502421460.jpg'
p817
I1130
sS'barneys_502729715.jpg'
p818
I27
sS'saks_0469644979866.jpg'
p819
I2939
sS'nordstrom_1054673.jpg'
p820
I1427
sS'saks_0446634362150.jpg'
p821
I1931
sS'nordstrom_833591.jpg'
p822
I2787
sS'nordstrom_1002774.jpg'
p823
I1312
sS'nordstrom_744970.jpg'
p824
I267
sS'nordstrom_993286.jpg'
p825
I3095
sS'saks_0441923737138.jpg'
p826
I985
sS'nordstrom_854505.jpg'
p827
I2809
sS'nordstrom_1039843.jpg'
p828
I2736
sS'nordstrom_277451.jpg'
p829
I669
sS'barneys_503325230.jpg'
p830
I85
sS'nordstrom_832471.jpg'
p831
I3011
sS'saks_0469647576864.jpg'
p832
I2189
sS'nordstrom_858165.jpg'
p833
I2812
sS'saks_0469652723161.jpg'
p834
I3192
sS'saks_0442314069869.jpg'
p835
I383
sS'nordstrom_1018438.jpg'
p836
I2714
sS'saks_0400086661937.jpg'
p837
I1734
sS'nordstrom_841533.jpg'
p838
I1586
sS'saks_0442341098658.jpg'
p839
I1011
sS'barneys_502462693.jpg'
p840
I1132
sS'nordstrom_1001078.jpg'
p841
I1289
sS'saks_0441929455937.jpg'
p842
I1810
sS'barneys_503642702.jpg'
p843
I1237
sS'saks_0448835638362.jpg'
p844
I1960
sS'saks_0442314047157.jpg'
p845
I2530
sS'nordstrom_579367.jpg'
p846
I1489
sS'saks_0469612227326.jpg'
p847
I466
sS'barneys_503688205.jpg'
p848
I2953
sS'nordstrom_988755.jpg'
p849
I912
sS'saks_0442327158284.jpg'
p850
I2532
sS'nordstrom_649377.jpg'
p851
I1496
sS'saks_0437848382645.jpg'
p852
I2435
sS'saks_0462296459298.jpg'
p853
I1061
sS'barneys_502750813.jpg'
p854
I38
sS'saks_0452432931481.jpg'
p855
I2028
sS'nordstrom_949953.jpg'
p856
I886
sS'nordstrom_1041412.jpg'
p857
I1406
sS'saks_0442009951660.jpg'
p858
I364
sS'saks_0469634028963.jpg'
p859
I2175
sS'saks_0469634766827.jpg'
p860
I2176
sS'saks_0441213530869.jpg'
p861
I2480
sS'saks_0442037039439.jpg'
p862
I368
sS'saks_0448881402917.jpg'
p863
I402
sS'nordstrom_865313.jpg'
p864
I3046
sS'nordstrom_1049987.jpg'
p865
I1413
sS'barneys_503244681.jpg'
p866
I77
sS'nordstrom_895428.jpg'
p867
I860
sS'saks_0448885155062.jpg'
p868
I405
sS'saks_0448835638744.jpg'
p869
I1961
sS'nordstrom_836425_4.jpg'
p870
I1564
sS'nordstrom_909074_1.jpg'
p871
I2357
sS'barneys_503321062.jpg'
p872
I1181
sS'nordstrom_1032772.jpg'
p873
I1380
sS'nordstrom_881357.jpg'
p874
I2849
sS'nordstrom_843795_1.jpg'
p875
I1590
sS'saks_0452488260955.jpg'
p876
I414
sS'nordstrom_923241.jpg'
p877
I1680
sS'saks_0442361644156.jpg'
p878
I1919
sS'saks_0469617980776.jpg'
p879
I468
sS'saks_0469645165374.jpg'
p880
I1096
sS'barneys_503750948.jpg'
p881
I2268
sS'nordstrom_999788.jpg'
p882
I2386
sS'saks_0448835622521.jpg'
p883
I1945
sS'nordstrom_853546.jpg'
p884
I3033
sS'nordstrom_1008340.jpg'
p885
I569
sS'saks_0441981736289.jpg'
p886
I1864
sS'nordstrom_817449_1.jpg'
p887
I776
sS'saks_0440445383021.jpg'
p888
I2453
sS'nordstrom_89991.jpg'
p889
I308
sS'barneys_502729091.jpg'
p890
I25
sS'barneys_503741442.jpg'
p891
I2262
sS'barneys_502925983.jpg'
p892
I60
sS'nordstrom_964893.jpg'
p893
I1695
sS'nordstrom_661855.jpg'
p894
I1500
sS'saks_0454318293638.jpg'
p895
I2558
sS'saks_0445238064187.jpg'
p896
I2537
sS'barneys_503642649.jpg'
p897
I1236
sS'barneys_503454094.jpg'
p898
I522
sS'saks_0448863537934.jpg'
p899
I1984
sS'nordstrom_1014516.jpg'
p900
I1341
sS'saks_0437848382966.jpg'
p901
I2436
sS'barneys_503573679.jpg'
p902
I163
sS'barneys_503325389.jpg'
p903
I87
sS'nordstrom_867465.jpg'
p904
I3052
sS'saks_0452491077977.jpg'
p905
I2072
sS'nordstrom_859577.jpg'
p906
I1625
sS'saks_0452537137153.jpg'
p907
I1032
sS'saks_0454378759129.jpg'
p908
I437
sS'nordstrom_797635.jpg'
p909
I278
sS'saks_0441935000879.jpg'
p910
I2487
sS'nordstrom_980745.jpg'
p911
I1704
sS'barneys_503549899.jpg'
p912
I156
sS'saks_0400086708630.jpg'
p913
I2406
sS'nordstrom_879714.jpg'
p914
I3075
sS'barneys_503642627.jpg'
p915
I1235
sS'saks_0445228829673.jpg'
p916
I2533
sS'saks_0442248156567.jpg'
p917
I2521
sS'saks_0469644390364.jpg'
p918
I2621
sS'nordstrom_384577.jpg'
p919
I2348
sS'nordstrom_315719.jpg'
p920
I200
sS'saks_0471921944542.jpg'
p921
I494
sS'saks_0462234480926.jpg'
p922
I3164
sS'nordstrom_703529.jpg'
p923
I1514
sS'nordstrom_972735_1.jpg'
p924
I2375
sS'nordstrom_858212.jpg'
p925
I807
sS'nordstrom_661855_5.jpg'
p926
I1502
sS'saks_0469642213757.jpg'
p927
I2610
sS'barneys_503731986.jpg'
p928
I2683
sS'saks_0448835623955.jpg'
p929
I1950
sS'barneys_501278060.jpg'
p930
I6
sS'barneys_503489154.jpg'
p931
I131
sS'nordstrom_497476.jpg'
p932
I1486
sS'saks_0453438310454.jpg'
p933
I2133
sS'nordstrom_277346_35.jpg'
p934
I668
sS'barneys_503475418.jpg'
p935
I1197
sS'nordstrom_902857.jpg'
p936
I1673
sS'saks_0446630967533.jpg'
p937
I1930
sS'nordstrom_812931.jpg'
p938
I765
sS'saks_0469672376415.jpg'
p939
I2637
sS'nordstrom_1029589.jpg'
p940
I1368
sS'saks_0440445363450.jpg'
p941
I1760
sS'saks_0441935353449.jpg'
p942
I3113
sS'nordstrom_982558.jpg'
p943
I1705
sS'barneys_503519782.jpg'
p944
I1207
sS'nordstrom_717079.jpg'
p945
I736
sS'nordstrom_1069694.jpg'
p946
I648
sS'nordstrom_814411.jpg'
p947
I771
sS'nordstrom_987498.jpg'
p948
I1711
sS'saks_0442341094636.jpg'
p949
I2903
sS'saks_0452525024885.jpg'
p950
I420
sS'saks_0441910030440.jpg'
p951
I1799
sS'saks_0448835635064.jpg'
p952
I1956
sS'saks_0452428806328.jpg'
p953
I2018
sS'nordstrom_466129_5.jpg'
p954
I699
sS'nordstrom_876087.jpg'
p955
I1638
sS'nordstrom_848505.jpg'
p956
I2797
sS'nordstrom_638461_1.jpg'
p957
I723
sS'saks_0442014440920.jpg'
p958
I365
sS'saks_0452546588069.jpg'
p959
I2104
sS'barneys_503549276.jpg'
p960
I150
sS'nordstrom_801688.jpg'
p961
I285
sS'nordstrom_375574.jpg'
p962
I2987
sS'saks_0442314044033.jpg'
p963
I1002
sS'saks_0469640081297.jpg'
p964
I3183
sS'nordstrom_1002977_1.jpg'
p965
I2965
sS'saks_0413400721763.jpg'
p966
I933
sS'nordstrom_870680.jpg'
p967
I3066
sS'nordstrom_1037013_1.jpg'
p968
I2322
sS'barneys_503662173.jpg'
p969
I170
sS'saks_0400086708006.jpg'
p970
I2404
sS'saks_0469674508050.jpg'
p971
I2638
sS'saks_0441923739804.jpg'
p972
I987
sS'nordstrom_816747_1.jpg'
p973
I1547
sS'saks_0448835636146.jpg'
p974
I1958
sS'nordstrom_881236.jpg'
p975
I2848
sS'nordstrom_854209.jpg'
p976
I1609
sS'saks_0469640082331.jpg'
p977
I3184
sS'saks_0442341101303.jpg'
p978
I2904
sS'nordstrom_895356.jpg'
p979
I1662
sS'nordstrom_854397.jpg'
p980
I803
sS'barneys_503572280.jpg'
p981
I2217
sS'nordstrom_1039038.jpg'
p982
I1403
sS'nordstrom_652297.jpg'
p983
I727
sS'nordstrom_845696.jpg'
p984
I3028
sS'saks_0469637008146.jpg'
p985
I2933
sS'barneys_503645201.jpg'
p986
I2219
sS'saks_0469644979941.jpg'
p987
I2940
sS'saks_0442004287016.jpg'
p988
I1875
sS'saks_0452537118398.jpg'
p989
I2085
sS'nordstrom_1030744.jpg'
p990
I1371
sS'nordstrom_1030811.jpg'
p991
I611
sS'saks_0468634821406.jpg'
p992
I2595
sS'saks_0441947839849.jpg'
p993
I1852
sS'nordstrom_980627_3.jpg'
p994
I1700
sS'barneys_503642728.jpg'
p995
I1238
sS'saks_0469667448165.jpg'
p996
I482
sS'barneys_503654713.jpg'
p997
I1256
sS'barneys_502192354.jpg'
p998
I1125
sS'nordstrom_1002773.jpg'
p999
I1311
sS'saks_0441938891382.jpg'
p1000
I1827
sS'saks_0442220014359.jpg'
p1001
I1895
sS'saks_0437837928496.jpg'
p1002
I963
sS'barneys_502624632.jpg'
p1003
I1146
sS'saks_0413499034324.jpg'
p1004
I953
sS'saks_0442248155072.jpg'
p1005
I3131
sS'nordstrom_866969.jpg'
p1006
I2824
sS'saks_0442048478128.jpg'
p1007
I1885
sS'saks_0441995198868.jpg'
p1008
I356
sS'saks_0469642478972.jpg'
p1009
I1091
sS'saks_0448881813058.jpg'
p1010
I404
sS'barneys_502885429.jpg'
p1011
I55
sS'nordstrom_801179.jpg'
p1012
I1529
sS'nordstrom_677208.jpg'
p1013
I252
sS'nordstrom_1050435.jpg'
p1014
I1416
sS'saks_0440473994114.jpg'
p1015
I1764
sS'nordstrom_1002694.jpg'
p1016
I1300
sS'saks_0454318292693.jpg'
p1017
I2135
sS'nordstrom_897235.jpg'
p1018
I867
sS'nordstrom_821478.jpg'
p1019
I784
sS'saks_0441913119340.jpg'
p1020
I338
sS'saks_0440434378984.jpg'
p1021
I1756
sS'barneys_503745802.jpg'
p1022
I1268
sS'saks_0441914296927.jpg'
p1023
I1803
sS'nordstrom_968723_1.jpg'
p1024
I891
sS'nordstrom_998790_1.jpg'
p1025
I2384
sS'nordstrom_408678_1.jpg'
p1026
I692
sS'nordstrom_990552.jpg'
p1027
I2378
sS'nordstrom_451087.jpg'
p1028
I219
sS'saks_0452490840909.jpg'
p1029
I416
sS'saks_0468237213714.jpg'
p1030
I1062
sS'barneys_503544034.jpg'
p1031
I534
sS'barneys_503654228.jpg'
p1032
I2223
sS'saks_0437837658942.jpg'
p1033
I3103
sS'barneys_503565612.jpg'
p1034
I1216
sS'nordstrom_1023618.jpg'
p1035
I2726
sS'saks_0440929056700.jpg'
p1036
I2465
sS'nordstrom_1001639.jpg'
p1037
I1298
sS'nordstrom_826761_1.jpg'
p1038
I2779
sS'barneys_502415633.jpg'
p1039
I505
sS'nordstrom_928920_2.jpg'
p1040
I1684
sS'saks_0440929075206.jpg'
p1041
I973
sS'barneys_503112123.jpg'
p1042
I66
sS'saks_0413420240756.jpg'
p1043
I936
sS'saks_0437834261138.jpg'
p1044
I2420
sS'saks_0448835646794.jpg'
p1045
I1965
sS'nordstrom_864733.jpg'
p1046
I1633
sS'saks_0442044721471.jpg'
p1047
I1884
sS'saks_0441944776468.jpg'
p1048
I1847
sS'saks_0452489414845.jpg'
p1049
I2066
sS'saks_0400086630142.jpg'
p1050
I2395
sS'nordstrom_400567_3.jpg'
p1051
I1476
sS'nordstrom_885576.jpg'
p1052
I850
sS'saks_0446630974715.jpg'
p1053
I2906
sS'nordstrom_191286_1.jpg'
p1054
I2340
sS'nordstrom_1051899.jpg'
p1055
I1420
sS'saks_0442314735764.jpg'
p1056
I1008
sS'nordstrom_30274.jpg'
p1057
I192
sS'barneys_503408469.jpg'
p1058
I1189
sS'barneys_503765940.jpg'
p1059
I2690
sS'barneys_502729731.jpg'
p1060
I28
sS'saks_0441936591970.jpg'
p1061
I1822
sS'nordstrom_968723.jpg'
p1062
I890
sS'saks_0448835683553.jpg'
p1063
I3141
sS'saks_0442314040585.jpg'
p1064
I1001
sS'barneys_503463293.jpg'
p1065
I2680
sS'nordstrom_1036436.jpg'
p1066
I1392
sS'nordstrom_813407.jpg'
p1067
I1541
sS'saks_0469647879514.jpg'
p1068
I2630
sS'nordstrom_832850.jpg'
p1069
I3014
sS'saks_0469641442493.jpg'
p1070
I3186
sS'barneys_503340379.jpg'
p1071
I93
sS'nordstrom_980738.jpg'
p1072
I1703
sS'saks_0400086753910.jpg'
p1073
I1743
sS'nordstrom_843285.jpg'
p1074
I1587
sS'saks_0440445364143.jpg'
p1075
I1761
sS'saks_0445228829642.jpg'
p1076
I3136
sS'saks_0469607834942.jpg'
p1077
I1079
sS'saks_0452428806694.jpg'
p1078
I2022
sS'saks_0469692577656.jpg'
p1079
I2947
sS'barneys_503654548.jpg'
p1080
I1254
sS'nordstrom_701189.jpg'
p1081
I256
sS'nordstrom_837341.jpg'
p1082
I2789
sS'saks_0469696445074.jpg'
p1083
I1106
sS'saks_0437837655798.jpg'
p1084
I956
sS'nordstrom_332818.jpg'
p1085
I205
sS'nordstrom_864142.jpg'
p1086
I1632
sS'saks_0456777881678.jpg'
p1087
I443
sS'nordstrom_661129.jpg'
p1088
I248
sS'saks_0456748404394.jpg'
p1089
I2573
sS'nordstrom_465113.jpg'
p1090
I226
sS'nordstrom_980733.jpg'
p1091
I1701
sS'nordstrom_1026526.jpg'
p1092
I604
sS'saks_0442248159902.jpg'
p1093
I2523
sS'saks_0400086630156.jpg'
p1094
I2396
sS'nordstrom_982559.jpg'
p1095
I1707
sS'saks_0462296459007.jpg'
p1096
I1060
sS'saks_0400086712656.jpg'
p1097
I3101
sS'saks_0448829943953.jpg'
p1098
I3140
sS'nordstrom_834656.jpg'
p1099
I3016
sS'nordstrom_861628_1.jpg'
p1100
I814
sS'saks_0448881807972.jpg'
p1101
I1998
sS'nordstrom_328307_6.jpg'
p1102
I2739
sS'saks_0441914296781.jpg'
p1103
I341
sS'saks_0442089186143.jpg'
p1104
I375
sS'nordstrom_1002708.jpg'
p1105
I1303
sS'barneys_503687245.jpg'
p1106
I2230
sS'nordstrom_1018568.jpg'
p1107
I2719
sS'nordstrom_792110_1.jpg'
p1108
I2762
sS'saks_0448880680743.jpg'
p1109
I397
sS'nordstrom_867428.jpg'
p1110
I3051
sS'saks_0442248149439.jpg'
p1111
I3130
sS'saks_0448800619341.jpg'
p1112
I1937
sS'saks_0440929079181.jpg'
p1113
I3110
sS'saks_0469648527285.jpg'
p1114
I2632
sS'nordstrom_1038983.jpg'
p1115
I1402
sS'saks_0441933195751.jpg'
p1116
I1818
sS'nordstrom_859533.jpg'
p1117
I1620
sS'barneys_503662676.jpg'
p1118
I1261
sS'nordstrom_1023351.jpg'
p1119
I597
sS'barneys_503112211.jpg'
p1120
I67
sS'saks_0441938890507.jpg'
p1121
I1826
sS'nordstrom_973427.jpg'
p1122
I902
sS'nordstrom_1002840_1.jpg'
p1123
I563
sS'barneys_503498537.jpg'
p1124
I135
sS'saks_0448835677194.jpg'
p1125
I392
sS'barneys_503015048.jpg'
p1126
I62
sS'nordstrom_383434_2.jpg'
p1127
I2345
sS'saks_0442219102388.jpg'
p1128
I1894
sS'saks_0468248707424.jpg'
p1129
I2591
sS'nordstrom_978206.jpg'
p1130
I1697
sS'saks_0452502465472.jpg'
p1131
I419
sS'saks_0452469161660.jpg'
p1132
I1029
sS'barneys_500382499.jpg'
p1133
I1111
sS'barneys_503549335.jpg'
p1134
I152
sS'nordstrom_1036470.jpg'
p1135
I1393
sS'nordstrom_888355.jpg'
p1136
I2851
sS'saks_0452453369973.jpg'
p1137
I2048
sS'nordstrom_1048751.jpg'
p1138
I2332
sS'nordstrom_856309.jpg'
p1139
I806
sS'nordstrom_191283.jpg'
p1140
I2338
sS'barneys_503741426.jpg'
p1141
I2261
sS'saks_0442093081212.jpg'
p1142
I998
sS'nordstrom_1007037.jpg'
p1143
I1326
sS'saks_0468296568497.jpg'
p1144
I1067
sS'nordstrom_1039199.jpg'
p1145
I1405
sS'saks_0448835698953.jpg'
p1146
I1972
sS'nordstrom_868393.jpg'
p1147
I3055
sS'barneys_503402714.jpg'
p1148
I121
sS'nordstrom_1006581.jpg'
p1149
I1322
sS'barneys_503765780.jpg'
p1150
I2269
sS'saks_0468237238809.jpg'
p1151
I2579
sS'saks_0469667680022.jpg'
p1152
I2196
sS'nordstrom_76496_1.jpg'
p1153
I273
sS'nordstrom_586175_2.jpg'
p1154
I711
sS'saks_0452597305813.jpg'
p1155
I425
sS'saks_0442314074191.jpg'
p1156
I384
sS'nordstrom_527275.jpg'
p1157
I2751
sS'nordstrom_328582_1.jpg'
p1158
I1464
sS'saks_0469618024493.jpg'
p1159
I2929
sS'saks_0441206289552.jpg'
p1160
I1778
sS'saks_0441939119805.jpg'
p1161
I1833
sS'nordstrom_988139.jpg'
p1162
I910
sS'saks_0400086610080.jpg'
p1163
I921
sS'nordstrom_710545.jpg'
p1164
I259
sS'saks_0448835945927.jpg'
p1165
I1019
sS'nordstrom_703683.jpg'
p1166
I1516
sS'saks_0452430334512.jpg'
p1167
I2026
sS'saks_0440434376638.jpg'
p1168
I2450
sS'nordstrom_792502.jpg'
p1169
I2763
sS'saks_0400086899113.jpg'
p1170
I928
sS'nordstrom_553591_2.jpg'
p1171
I243
sS'nordstrom_103218.jpg'
p1172
I615
sS'saks_0469642477708.jpg'
p1173
I3187
sS'saks_0442314056074.jpg'
p1174
I1911
sS'saks_0440480243823.jpg'
p1175
I1766
sS'saks_0448835678856.jpg'
p1176
I1971
sS'saks_0441929331095.jpg'
p1177
I1808
sS'nordstrom_823101_1.jpg'
p1178
I290
sS'nordstrom_977933.jpg'
p1179
I2376
sS'saks_0468237216593.jpg'
p1180
I451
sS'saks_0441913121237.jpg'
p1181
I339
sS'saks_0448803475975.jpg'
p1182
I3139
sS'saks_0454372302420.jpg'
p1183
I434
sS'saks_0440434377086.jpg'
p1184
I2451
sS'nordstrom_236914_2.jpg'
p1185
I1455
sS'saks_0446635524052.jpg'
p1186
I3137
sS'nordstrom_859527.jpg'
p1187
I1619
sS'barneys_503339973.jpg'
p1188
I518
sS'nordstrom_1014551.jpg'
p1189
I2972
sS'saks_0437837701631.jpg'
p1190
I2425
sS'nordstrom_938053.jpg'
p1191
I2864
sS'barneys_503643650.jpg'
p1192
I1245
sS'nordstrom_828370.jpg'
p1193
I3009
sS'barneys_503743974.jpg'
p1194
I2265
sS'saks_0452537122494.jpg'
p1195
I2093
sS'nordstrom_1037353.jpg'
p1196
I622
sS'barneys_503387751.jpg'
p1197
I115
sS'barneys_503475602.jpg'
p1198
I127
sS'nordstrom_S06522_10.jpg'
p1199
I2885
sS'nordstrom_945724.jpg'
p1200
I1689
sS'nordstrom_987575_3.jpg'
p1201
I1713
sS'saks_0452537114758.jpg'
p1202
I2082
sS'nordstrom_1001662_1.jpg'
p1203
I1299
sS'saks_0440434378083.jpg'
p1204
I1755
sS'saks_0469612202897.jpg'
p1205
I463
sS'saks_0452490817260.jpg'
p1206
I2068
sS'nordstrom_986982.jpg'
p1207
I2879
sS'nordstrom_988899.jpg'
p1208
I1714
sS'saks_0469652758965.jpg'
p1209
I2944
sS'nordstrom_848509_1.jpg'
p1210
I2798
sS'saks_0441948140746.jpg'
p1211
I2504
sS'barneys_503177184.jpg'
p1212
I2206
sS'saks_0441919138697.jpg'
p1213
I2889
sS'nordstrom_348334_8.jpg'
p1214
I1468
sS'saks_0468634823547.jpg'
p1215
I1072
sS'nordstrom_856417.jpg'
p1216
I1614
sS'barneys_503246057.jpg'
p1217
I1174
sS'nordstrom_1023779.jpg'
p1218
I600
sS'barneys_503771285.jpg'
p1219
I2693
sS'barneys_503643538.jpg'
p1220
I1243
sS'saks_0442215235172.jpg'
p1221
I1892
sS'barneys_502537487.jpg'
p1222
I1137
sS'saks_0469639591257.jpg'
p1223
I1090
sS'nordstrom_1041070.jpg'
p1224
I2737
sS'nordstrom_1065739.jpg'
p1225
I2985
sS'barneys_503703264.jpg'
p1226
I2242
sS'nordstrom_1057593.jpg'
p1227
I1436
sS'nordstrom_1077372.jpg'
p1228
I1449
sS'saks_0400086605906.jpg'
p1229
I919
sS'saks_0454343118500.jpg'
p1230
I2566
sS'nordstrom_849421.jpg'
p1231
I2805
sS'barneys_503776452.jpg'
p1232
I2960
sS'saks_0454372303175.jpg'
p1233
I435
sS'nordstrom_999822.jpg'
p1234
I2388
sS'nordstrom_177709.jpg'
p1235
I2337
sS'saks_0468647920295.jpg'
p1236
I2921
sS'nordstrom_344107_12.jpg'
p1237
I678
sS'saks_0448881695968.jpg'
p1238
I403
sS'barneys_502988433.jpg'
p1239
I508
sS'saks_0452502457941.jpg'
p1240
I417
sS'nordstrom_344101_5.jpg'
p1241
I207
sS'saks_0448835620343.jpg'
p1242
I1943
sS'nordstrom_476018.jpg'
p1243
I2743
sS'nordstrom_918532.jpg'
p1244
I1679
sS'nordstrom_892160.jpg'
p1245
I1657
sS'nordstrom_379466.jpg'
p1246
I1472
sS'nordstrom_1038294.jpg'
p1247
I1398
sS'saks_0452537135258.jpg'
p1248
I2915
sS'nordstrom_821421.jpg'
p1249
I780
sS'barneys_503153783.jpg'
p1250
I2672
sS'nordstrom_14244.jpg'
p1251
I184
sS'nordstrom_896476.jpg'
p1252
I1666
sS'barneys_503543970.jpg'
p1253
I145
sS'saks_0400086622619.jpg'
p1254
I1726
sS'saks_0462296247208.jpg'
p1255
I1058
sS'saks_0462278696741.jpg'
p1256
I1057
sS'saks_0469610174455.jpg'
p1257
I460
sS'nordstrom_1038534.jpg'
p1258
I2732
sS'nordstrom_1006715.jpg'
p1259
I1323
sS'nordstrom_877170.jpg'
p1260
I1643
sS'barneys_503465191.jpg'
p1261
I1193
sS'nordstrom_619974.jpg'
p1262
I719
sS'nordstrom_1001159.jpg'
p1263
I2696
sS'barneys_503636660.jpg'
p1264
I1226
sS'saks_0452537127994.jpg'
p1265
I2097
sS'nordstrom_823639.jpg'
p1266
I3006
sS'nordstrom_1016197.jpg'
p1267
I587
sS'nordstrom_969567.jpg'
p1268
I896
sS'nordstrom_896091.jpg'
p1269
I1664
sS'saks_0452446211630.jpg'
p1270
I2046
sS'nordstrom_836744.jpg'
p1271
I3017
sS'nordstrom_786243.jpg'
p1272
I1523
sS'nordstrom_880872.jpg'
p1273
I839
sS'nordstrom_857213.jpg'
p1274
I1616
sS'nordstrom_798423.jpg'
p1275
I3002
sS'saks_0442231588290.jpg'
p1276
I1900
sS'nordstrom_902821.jpg'
p1277
I1670
sS'nordstrom_1013900.jpg'
p1278
I580
sS'nordstrom_1036432.jpg'
p1279
I1391
sS'nordstrom_13922_1.jpg'
p1280
I183
sS'barneys_503654881.jpg'
p1281
I2224
sS'saks_0413445494608.jpg'
p1282
I947
sS'saks_0442248162223.jpg'
p1283
I999
sS'saks_0442318852894.jpg'
p1284
I1009
sS'saks_0468237227070.jpg'
p1285
I2576
sS'nordstrom_383434_3.jpg'
p1286
I2346
sS'barneys_503783527.jpg'
p1287
I1283
sS'nordstrom_859162.jpg'
p1288
I1617
sS'barneys_502914254.jpg'
p1289
I59
sS'barneys_503918935.jpg'
p1290
I2299
sS'saks_0462273521635.jpg'
p1291
I1055
sS'nordstrom_241256_2.jpg'
p1292
I661
sS'saks_0442299467520.jpg'
p1293
I3133
sS'saks_0452537122074.jpg'
p1294
I2092
sS'barneys_503696356.jpg'
p1295
I2240
sS'saks_0469612225797.jpg'
p1296
I465
sS'saks_0452537115106.jpg'
p1297
I2083
sS'barneys_503209021.jpg'
p1298
I2213
sS'barneys_501902473.jpg'
p1299
I501
sS'nordstrom_400567_2.jpg'
p1300
I1475
sS'saks_0400086605812.jpg'
p1301
I1725
sS'saks_0469602843574.jpg'
p1302
I1075
sS'nordstrom_999827.jpg'
p1303
I2389
sS'barneys_503747720.jpg'
p1304
I1271
sS'saks_0400086605795.jpg'
p1305
I1724
sS'nordstrom_1028889.jpg'
p1306
I607
sS'nordstrom_977357.jpg'
p1307
I905
sS'saks_0445238065207.jpg'
p1308
I1926
sS'barneys_502730397.jpg'
p1309
I29
sS'nordstrom_497477.jpg'
p1310
I702
sS'saks_0441201711188.jpg'
p1311
I1776
sS'barneys_503140406.jpg'
p1312
I69
sS'saks_0442323786603.jpg'
p1313
I2901
sS'saks_0413445491454.jpg'
p1314
I942
sS'barneys_503489852.jpg'
p1315
I132
sS'nordstrom_1041021.jpg'
p1316
I2980
sS'saks_0448835677781.jpg'
p1317
I393
sS'saks_0454349017715.jpg'
p1318
I1047
sS'barneys_501724097.jpg'
p1319
I13
sS'nordstrom_1080762.jpg'
p1320
I1450
sS'nordstrom_848525.jpg'
p1321
I2799
sS'nordstrom_96950.jpg'
p1322
I895
sS'saks_0441933383882.jpg'
p1323
I2486
sS'barneys_503208178.jpg'
p1324
I1166
sS'nordstrom_937659.jpg'
p1325
I2862
sS'saks_0459287108754.jpg'
p1326
I2164
sS'nordstrom_942587.jpg'
p1327
I3092
sS'nordstrom_1008739.jpg'
p1328
I570
sS'nordstrom_841619.jpg'
p1329
I3021
sS'nordstrom_886421.jpg'
p1330
I3079
sS'barneys_503643353.jpg'
p1331
I543
sS'nordstrom_893945.jpg'
p1332
I1660
sS'saks_0441903549669.jpg'
p1333
I331
sS'saks_0468229951822.jpg'
p1334
I3171
sS'saks_0452446205592.jpg'
p1335
I2040
sS'saks_0442244032155.jpg'
p1336
I380
sS'saks_0441901351448.jpg'
p1337
I1794
sS'barneys_503177039.jpg'
p1338
I2675
sS'barneys_503544711.jpg'
p1339
I1211
sS'saks_0440991834749.jpg'
p1340
I2473
sS'nordstrom_869044.jpg'
p1341
I3060
sS'saks_0452406501092.jpg'
p1342
I2014
sS'barneys_502888008.jpg'
p1343
I56
sS'barneys_500765580.jpg'
p1344
I4
sS'saks_0469608327108.jpg'
p1345
I2924
sS'nordstrom_899477_1.jpg'
p1346
I2352
sS'saks_0453438306846.jpg'
p1347
I2553
sS'saks_0468647923852.jpg'
p1348
I3176
sS'saks_0452425521330.jpg'
p1349
I2017
sS'barneys_502731331.jpg'
p1350
I1151
sS'saks_0454318293904.jpg'
p1351
I2559
sS'nordstrom_853177.jpg'
p1352
I1605
sS'saks_0442248149859.jpg'
p1353
I2519
sS'nordstrom_894975.jpg'
p1354
I2855
sS'nordstrom_755269.jpg'
p1355
I271
sS'saks_0445238062510.jpg'
p1356
I2536
sS'nordstrom_1007208.jpg'
p1357
I1328
sS'saks_0442231581208.jpg'
p1358
I3128
sS'saks_0469642217502.jpg'
p1359
I2612
sS'saks_0452446210534.jpg'
p1360
I2045
sS'barneys_503732471.jpg'
p1361
I2252
sS'barneys_503688109.jpg'
p1362
I551
sS'saks_0442314062211.jpg'
p1363
I1007
sS'barneys_503212898.jpg'
p1364
I2678
sS'nordstrom_812899.jpg'
p1365
I764
sS'nordstrom_1038301.jpg'
p1366
I2329
sS'saks_0469637045516.jpg'
p1367
I2605
sS'saks_0454378755404.jpg'
p1368
I2151
sS'barneys_503779145.jpg'
p1369
I1275
sS'barneys_503779172.jpg'
p1370
I1276
sS'nordstrom_1051830.jpg'
p1371
I1419
sS'saks_0448881795255.jpg'
p1372
I1996
sS'barneys_503243004.jpg'
p1373
I75
sS'barneys_503776580.jpg'
p1374
I2274
sS'nordstrom_928912.jpg'
p1375
I1683
sS'barneys_503339925.jpg'
p1376
I1185
sS'nordstrom_78795.jpg'
p1377
I276
sS'nordstrom_1027403.jpg'
p1378
I605
sS'nordstrom_1076899.jpg'
p1379
I2333
sS'saks_0440480719786.jpg'
p1380
I320
sS'saks_0441998466384.jpg'
p1381
I2891
sS'nordstrom_1019729.jpg'
p1382
I1352
sS'nordstrom_372142_53.jpg'
p1383
I688
sS'saks_0456748215617.jpg'
p1384
I2570
sS'saks_0442392983187.jpg'
p1385
I1922
sS'nordstrom_457609.jpg'
p1386
I224
sS'saks_0469652902481.jpg'
p1387
I2194
sS'saks_0440480678458.jpg'
p1388
I2459
sS'saks_0437837708074.jpg'
p1389
I2426
sS'nordstrom_897045.jpg'
p1390
I3091
sS'saks_0400086848337.jpg'
p1391
I2417
sS'nordstrom_1019724.jpg'
p1392
I1351
sS'saks_0469635508358.jpg'
p1393
I2601
sS'barneys_501160135.jpg'
p1394
I1114
sS'saks_0452402988316.jpg'
p1395
I2010
sS'nordstrom_866424.jpg'
p1396
I1635
sS'saks_0441906528630.jpg'
p1397
I332
sS'barneys_503741150.jpg'
p1398
I2258
sS'saks_0454378763256.jpg'
p1399
I438
sS'barneys_503733230.jpg'
p1400
I554
sS'saks_0441999252023.jpg'
p1401
I1873
sS'nordstrom_1031375.jpg'
p1402
I614
sS'barneys_503779441.jpg'
p1403
I1282
sS'saks_0452441898591.jpg'
p1404
I2035
sS'barneys_503502690.jpg'
p1405
I528
sS'saks_0442341099747.jpg'
p1406
I1012
sS'nordstrom_817087_1.jpg'
p1407
I774
sS'saks_0469637161278.jpg'
p1408
I2182
sS'saks_0442314053691.jpg'
p1409
I1909
sS'saks_0441946097103.jpg'
p1410
I1849
sS'nordstrom_608560_1.jpg'
p1411
I2994
sS'barneys_503325405.jpg'
p1412
I88
sS'saks_0442036426520.jpg'
p1413
I367
sS'nordstrom_1005504.jpg'
p1414
I566
sS'nordstrom_1075361.jpg'
p1415
I1447
sS'saks_0400086747551.jpg'
p1416
I1738
sS'saks_0469652876171.jpg'
p1417
I3195
sS'saks_0437837910675.jpg'
p1418
I959
sS'nordstrom_996200.jpg'
p1419
I3098
sS'barneys_501386602.jpg'
p1420
I500
sS'barneys_503486925.jpg'
p1421
I130
sS'nordstrom_409587.jpg'
p1422
I214
sS'nordstrom_487676_1.jpg'
p1423
I701
sS'saks_0471946399617.jpg'
p1424
I2646
sS'saks_0441941862522.jpg'
p1425
I2497
sS'saks_0442263299423.jpg'
p1426
I3132
sS'saks_0442341092922.jpg'
p1427
I2902
sS'barneys_503502892.jpg'
p1428
I137
sS'saks_0441916288265.jpg'
p1429
I1804
sS'nordstrom_1033780.jpg'
p1430
I1385
sS'barneys_503643762.jpg'
p1431
I2950
sS'saks_0440953787137.jpg'
p1432
I976
sS'nordstrom_829718.jpg'
p1433
I1559
sS'barneys_503475375.jpg'
p1434
I1196
sS'saks_0448847979880.jpg'
p1435
I3146
sS'barneys_503475566.jpg'
p1436
I1198
sS'nordstrom_851220.jpg'
p1437
I1603
sS'saks_0400086747593.jpg'
p1438
I1739
sS'saks_0441908800703.jpg'
p1439
I335
sS'nordstrom_837230.jpg'
p1440
I1572
sS'nordstrom_867221.jpg'
p1441
I2829
sS'nordstrom_845342.jpg'
p1442
I1593
sS'nordstrom_1018497.jpg'
p1443
I2717
sS'saks_0459294026638.jpg'
p1444
I449
sS'nordstrom_891382.jpg'
p1445
I855
sS'barneys_503688157.jpg'
p1446
I1265
sS'nordstrom_718035.jpg'
p1447
I260
sS'nordstrom_1033712_1.jpg'
p1448
I1384
sS'barneys_503643778.jpg'
p1449
I2951
sS'nordstrom_478424.jpg'
p1450
I1484
sS'nordstrom_838547.jpg'
p1451
I3018
sS'nordstrom_834796.jpg'
p1452
I291
sS'saks_0445266965173.jpg'
p1453
I1927
sS'saks_0452480567236.jpg'
p1454
I2055
sS'nordstrom_870692.jpg'
p1455
I3067
sS'saks_0469696710721.jpg'
p1456
I2201
sS'nordstrom_1013995.jpg'
p1457
I2309
sS'saks_0452502442442.jpg'
p1458
I2076
sS'nordstrom_867510.jpg'
p1459
I3053
sS'saks_0452598340431.jpg'
p1460
I1034
sS'nordstrom_1028933.jpg'
p1461
I1367
sS'nordstrom_1077306.jpg'
p1462
I2738
sS'saks_0468237211680.jpg'
p1463
I2166
sS'saks_0452428806526.jpg'
p1464
I2019
sS'nordstrom_1021095.jpg'
p1465
I1354
sS'saks_0453496485323.jpg'
p1466
I429
sS'nordstrom_804465.jpg'
p1467
I1530
sS'nordstrom_986480_19.jpg'
p1468
I2878
sS'barneys_503340363.jpg'
p1469
I92
sS'saks_0442375757521.jpg'
p1470
I1921
sS'nordstrom_1018334.jpg'
p1471
I590
sS'saks_0452501481138.jpg'
p1472
I2073
sS'barneys_503274176.jpg'
p1473
I82
sS'saks_0468239212845.jpg'
p1474
I2167
sS'nordstrom_1018486.jpg'
p1475
I2716
sS'saks_0452537121268.jpg'
p1476
I2091
sS'saks_0468248709947.jpg'
p1477
I3175
sS'saks_0469633204443.jpg'
p1478
I2173
sS'nordstrom_859860.jpg'
p1479
I1626
sS'saks_0400086713002.jpg'
p1480
I2410
sS'nordstrom_945136.jpg'
p1481
I1688
sS'saks_0441936499078.jpg'
p1482
I348
sS'saks_0452406502556.jpg'
p1483
I2015
sS'saks_0469633203989.jpg'
p1484
I2600
sS'nordstrom_1014473.jpg'
p1485
I1339
sS'nordstrom_973425.jpg'
p1486
I901
sS'saks_0442339683392.jpg'
p1487
I1916
sS'barneys_503776612.jpg'
p1488
I2276
sS'nordstrom_1040154.jpg'
p1489
I2979
sS'saks_0448874961353.jpg'
p1490
I1987
sS'nordstrom_864140.jpg'
p1491
I816
sS'nordstrom_276726.jpg'
p1492
I664
sS'nordstrom_1007198.jpg'
p1493
I1327
sS'nordstrom_84919.jpg'
p1494
I300
sS'saks_0452478074357.jpg'
p1495
I2053
sS'nordstrom_1013988.jpg'
p1496
I1338
sS'saks_0454318312971.jpg'
p1497
I1040
sS'nordstrom_867103.jpg'
p1498
I2826
sS'barneys_503549640.jpg'
p1499
I1214
sS'saks_0469637003752.jpg'
p1500
I2178
sS'nordstrom_362412.jpg'
p1501
I213
sS'saks_0413445494394.jpg'
p1502
I946
sS'nordstrom_1002731.jpg'
p1503
I1308
sS'barneys_503242139.jpg'
p1504
I74
sS'saks_0452489387330.jpg'
p1505
I2058
sS'nordstrom_862489.jpg'
p1506
I2814
sS'barneys_502729314.jpg'
p1507
I1148
sS'nordstrom_855773.jpg'
p1508
I3036
sS'saks_0469611042654.jpg'
p1509
I2927
sS'saks_0469646008786.jpg'
p1510
I1097
sS'nordstrom_312639.jpg'
p1511
I198
sS'saks_0469600704365.jpg'
p1512
I1074
sS'saks_0440929053907.jpg'
p1513
I1768
sS'nordstrom_866118.jpg'
p1514
I3048
sS'barneys_503292919.jpg'
p1515
I1177
sS'saks_0413445495216.jpg'
p1516
I949
sS'nordstrom_812443_1.jpg'
p1517
I762
sS'nordstrom_820073.jpg'
p1518
I778
sS'saks_0437837719216.jpg'
p1519
I958
sS'saks_0441233758205.jpg'
p1520
I1787
sS'nordstrom_977694.jpg'
p1521
I2872
sS'barneys_502731575.jpg'
p1522
I1153
sS'barneys_503401543.jpg'
p1523
I119
sS'nordstrom_804481.jpg'
p1524
I1533
sS'saks_0454318309537.jpg'
p1525
I2137
sS'saks_0469635501908.jpg'
p1526
I469
sS'nordstrom_1005079.jpg'
p1527
I1314
sS'saks_0442012961700.jpg'
p1528
I1877
sS'nordstrom_1014180.jpg'
p1529
I2710
sS'barneys_503468903.jpg'
p1530
I125
sS'nordstrom_800238.jpg'
p1531
I283
sS'saks_0469612994952.jpg'
p1532
I2171
sS'barneys_502160424.jpg'
p1533
I15
sS'saks_0441944564645.jpg'
p1534
I3120
sS'barneys_503071143.jpg'
p1535
I2669
sS'nordstrom_1021204.jpg'
p1536
I591
sS'nordstrom_840911.jpg'
p1537
I2791
sS'nordstrom_994380.jpg'
p1538
I2382
sS'saks_0437837914314.jpg'
p1539
I961
sS'saks_0400086712595.jpg'
p1540
I2408
sS'saks_0452546633844.jpg'
p1541
I3153
sS'barneys_503177071.jpg'
p1542
I2676
sS'nordstrom_1048431.jpg'
p1543
I2331
sS'nordstrom_1068383.jpg'
p1544
I646
sS'nordstrom_1001539.jpg'
p1545
I1297
sS'saks_0441213696169.jpg'
p1546
I1785
sS'barneys_502699643.jpg'
p1547
I22
sS'saks_0452424338267.jpg'
p1548
I2016
sS'saks_0452546615673.jpg'
p1549
I2121
sS'barneys_503537853.jpg'
p1550
I1209
sS'barneys_503125327.jpg'
p1551
I1161
sS'saks_0441924218407.jpg'
p1552
I988
sS'saks_0441933195027.jpg'
p1553
I3112
sS'nordstrom_813544.jpg'
p1554
I768
sS'nordstrom_814353.jpg'
p1555
I286
sS'saks_0469660036482.jpg'
p1556
I1098
sS'nordstrom_1065943.jpg'
p1557
I1443
sS'barneys_503463453.jpg'
p1558
I525
sS'nordstrom_860157.jpg'
p1559
I1628
sS'barneys_503778977.jpg'
p1560
I2288
sS'nordstrom_845347.jpg'
p1561
I1594
sS'nordstrom_1014515.jpg'
p1562
I1340
sS'saks_0440929078504.jpg'
p1563
I3108
sS'nordstrom_82113.jpg'
p1564
I288
sS'saks_0448863623552.jpg'
p1565
I1022
sS'saks_0469608409675.jpg'
p1566
I1080
sS'nordstrom_828415.jpg'
p1567
I789
sS'barneys_503244697.jpg'
p1568
I78
sS'saks_0459235969352.jpg'
p1569
I446
sS'saks_0441213527784.jpg'
p1570
I1781
sS'saks_0440403858066.jpg'
p1571
I1753
sS'nordstrom_827772_1.jpg'
p1572
I2784
sS'nordstrom_884730.jpg'
p1573
I846
sS'saks_0469608797260.jpg'
p1574
I458
sS'saks_0452580904313.jpg'
p1575
I423
sS'saks_0442314052571.jpg'
p1576
I1908
sS'saks_0452537136606.jpg'
p1577
I2917
sS'nordstrom_717547.jpg'
p1578
I738
sS'saks_0469636924942.jpg'
p1579
I1086
sS'saks_0456737088611.jpg'
p1580
I2569
sS'saks_0452537117001.jpg'
p1581
I2084
sS'saks_0448835691541.jpg'
p1582
I3145
sS'nordstrom_1031377.jpg'
p1583
I1372
sS'saks_0469644800030.jpg'
p1584
I1095
sS'barneys_503550463.jpg'
p1585
I160
sS'nordstrom_871661.jpg'
p1586
I2839
sS'saks_0441937331858.jpg'
p1587
I2493
sS'barneys_503797028.jpg'
p1588
I2294
sS'nordstrom_999774.jpg'
p1589
I2385
sS'saks_0452546589110.jpg'
p1590
I2105
sS'saks_0469612994808.jpg'
p1591
I2170
sS'saks_0448835638010.jpg'
p1592
I1959
sS'saks_0469600717907.jpg'
p1593
I455
sS'barneys_503751430.jpg'
p1594
I2958
sS'saks_0441995144056.jpg'
p1595
I1867
sS'saks_0468237230506.jpg'
p1596
I1064
sS'barneys_503667438.jpg'
p1597
I2227
sS'saks_0456748212586.jpg'
p1598
I2159
sS'nordstrom_810851.jpg'
p1599
I3003
sS'nordstrom_988753.jpg'
p1600
I911
sS'nordstrom_851523.jpg'
p1601
I3031
sS'nordstrom_871643.jpg'
p1602
I2837
sS'barneys_502845891.jpg'
p1603
I51
sS'nordstrom_1013365.jpg'
p1604
I2302
sS'nordstrom_1058228.jpg'
p1605
I637
sS'barneys_502992638.jpg'
p1606
I61
sS'barneys_501424623.jpg'
p1607
I1116
sS'nordstrom_799879.jpg'
p1608
I1527
sS'saks_0400086747533.jpg'
p1609
I925
sS'nordstrom_1054692.jpg'
p1610
I1428
sS'saks_0441929223574.jpg'
p1611
I2485
sS'barneys_502624616.jpg'
p1612
I1145
sS'nordstrom_1051954.jpg'
p1613
I1421
sS'nordstrom_702652.jpg'
p1614
I2760
sS'nordstrom_870771_1.jpg'
p1615
I3070
sS'saks_0448853002633.jpg'
p1616
I1981
sS'barneys_503779092.jpg'
p1617
I1273
sS'saks_0454382428738.jpg'
p1618
I2155
sS'nordstrom_815994.jpg'
p1619
I2773
sS'saks_0452489407809.jpg'
p1620
I2061
sS'nordstrom_871647.jpg'
p1621
I2838
sS'nordstrom_867080.jpg'
p1622
I2825
sS'saks_0448835635750.jpg'
p1623
I1957
sS'saks_0452489412629.jpg'
p1624
I2062
sS'saks_0446644661380.jpg'
p1625
I2544
sS'barneys_503209053.jpg'
p1626
I2215
sS'nordstrom_800085.jpg'
p1627
I281
sS'saks_0441213516795.jpg'
p1628
I2474
sS'nordstrom_178833.jpg'
p1629
I653
sS'saks_0468296927010.jpg'
p1630
I1069
sS'barneys_503244713.jpg'
p1631
I79
sS'saks_0441213517099.jpg'
p1632
I2475
sS'saks_0456748402901.jpg'
p1633
I2571
sS'saks_0469648437034.jpg'
p1634
I480
sS'nordstrom_77935.jpg'
p1635
I274
sS'nordstrom_476594.jpg'
p1636
I2744
sS'nordstrom_876044.jpg'
p1637
I3073
sS'nordstrom_884725.jpg'
p1638
I845
sS'saks_0400086758550.jpg'
p1639
I2886
sS'saks_0469679820898.jpg'
p1640
I487
sS'saks_0400086710449.jpg'
p1641
I2407
sS'nordstrom_910538.jpg'
p1642
I871
sS'saks_0469636647759.jpg'
p1643
I2602
sS'saks_0442055643021.jpg'
p1644
I996
sS'nordstrom_191286.jpg'
p1645
I2339
sS'saks_0452537120889.jpg'
p1646
I2090
sS'nordstrom_885569.jpg'
p1647
I3077
sS'saks_0452429118543.jpg'
p1648
I1028
sS'nordstrom_649370.jpg'
p1649
I1495
sS'nordstrom_875493.jpg'
p1650
I3071
sS'saks_0448835641737.jpg'
p1651
I1962
sS'nordstrom_418725.jpg'
p1652
I215
sS'saks_0469640699249.jpg'
p1653
I474
sS'nordstrom_891687.jpg'
p1654
I856
sS'nordstrom_1037360.jpg'
p1655
I2323
sS'saks_0452480570878.jpg'
p1656
I2056
sS'nordstrom_871836.jpg'
p1657
I2841
sS'saks_0468229953703.jpg'
p1658
I3172
sS'saks_0437837929660.jpg'
p1659
I964
sS'nordstrom_291389.jpg'
p1660
I1459
sS'nordstrom_1002771.jpg'
p1661
I1310
sS'nordstrom_747229.jpg'
p1662
I1521
sS'barneys_503779129.jpg'
p1663
I1274
sS'saks_0452546632342.jpg'
p1664
I2124
sS'nordstrom_871889.jpg'
p1665
I2845
sS'nordstrom_708006.jpg'
p1666
I1518
sS'barneys_501649847.jpg'
p1667
I1120
sS'nordstrom_840925.jpg'
p1668
I1584
sS'saks_0441944559160.jpg'
p1669
I1842
sS'nordstrom_1031421.jpg'
p1670
I2727
sS'nordstrom_812904.jpg'
p1671
I1540
sS'barneys_503502876.jpg'
p1672
I136
sS'nordstrom_883624.jpg'
p1673
I1650
sS'saks_0454372299508.jpg'
p1674
I433
sS'barneys_503474438.jpg'
p1675
I526
sS'barneys_503488887.jpg'
p1676
I1199
sS'saks_0442231581697.jpg'
p1677
I3129
sS'nordstrom_1034454.jpg'
p1678
I1387
sS'nordstrom_854196.jpg'
p1679
I1608
sS'saks_0452428816563.jpg'
p1680
I2548
sS'saks_0441935002095.jpg'
p1681
I2488
sS'saks_0446604804567.jpg'
p1682
I390
sS'nordstrom_1035049.jpg'
p1683
I620
sS'saks_0468229919457.jpg'
p1684
I3169
sS'barneys_503544839.jpg'
p1685
I147
sS'nordstrom_859541.jpg'
p1686
I1621
sS'barneys_503177986.jpg'
p1687
I1164
sS'saks_0445238077231.jpg'
p1688
I2538
sS'nordstrom_1057363_1.jpg'
p1689
I1433
sS'barneys_503374989.jpg'
p1690
I109
sS'nordstrom_1052218.jpg'
p1691
I1422
sS'barneys_502160616.jpg'
p1692
I1123
sS'saks_0452489394086.jpg'
p1693
I2060
sS'nordstrom_1053338.jpg'
p1694
I1424
sS'nordstrom_1003207.jpg'
p1695
I2700
sS'saks_0441935354620.jpg'
p1696
I2489
sS'nordstrom_1056606.jpg'
p1697
I1431
sS'nordstrom_896991.jpg'
p1698
I3090
sS'nordstrom_958735_4.jpg'
p1699
I2369
sS'nordstrom_1033908_1.jpg'
p1700
I2729
sS'nordstrom_877170_1.jpg'
p1701
I1644
sS'saks_0452489412803.jpg'
p1702
I2063
sS'nordstrom_855384.jpg'
p1703
I1610
sS'saks_0469674860639.jpg'
p1704
I2640
sS'nordstrom_1052733.jpg'
p1705
I632
sS'nordstrom_859548.jpg'
p1706
I1622
sS'nordstrom_845830.jpg'
p1707
I1595
sS'barneys_503341001.jpg'
p1708
I96
sS'nordstrom_1007204.jpg'
p1709
I2702
sS'saks_0448835623702.jpg'
p1710
I1949
sS'nordstrom_730766.jpg'
p1711
I1520
sS'saks_0469642478521.jpg'
p1712
I2187
sS'nordstrom_869059.jpg'
p1713
I3062
sS'nordstrom_104741.jpg'
p1714
I628
sS'saks_0452546612573.jpg'
p1715
I2119
sS'nordstrom_597691.jpg'
p1716
I716
sS'saks_0442047719093.jpg'
p1717
I2513
sS'nordstrom_893349.jpg'
p1718
I3087
sS'nordstrom_499107.jpg'
p1719
I703
sS'nordstrom_363299_15.jpg'
p1720
I1471
sS'nordstrom_811943_1.jpg'
p1721
I2769
sS'barneys_158585085.jpg'
p1722
I2
sS'nordstrom_1037366_1.jpg'
p1723
I2325
sS'saks_0442327054586.jpg'
p1724
I1913
sS'nordstrom_821817.jpg'
p1725
I2775
sS'saks_0452546580780.jpg'
p1726
I2103
sS'nordstrom_849403.jpg'
p1727
I2803
sS'saks_0441944775638.jpg'
p1728
I1846
sS'nordstrom_1014518.jpg'
p1729
I2312
sS'barneys_503043737.jpg'
p1730
I2666
sS'saks_0441903799699.jpg'
p1731
I983
sS'nordstrom_854581.jpg'
p1732
I2811
sS'saks_0442231592419.jpg'
p1733
I1901
sS'saks_0441933196369.jpg'
p1734
I1820
sS'saks_0437852614985.jpg'
p1735
I2438
sS'nordstrom_813707.jpg'
p1736
I1542
sS'saks_0452489413695.jpg'
p1737
I2065
sS'nordstrom_177141.jpg'
p1738
I2336
sS'saks_0469642215812.jpg'
p1739
I2611
sS'saks_0445228829758.jpg'
p1740
I2534
sS'nordstrom_937848_2.jpg'
p1741
I879
sS'saks_0440926157219.jpg'
p1742
I2462
sS'saks_0445275239906.jpg'
p1743
I1928
sS'barneys_503776772.jpg'
p1744
I2282
sS'saks_0440434397558.jpg'
p1745
I319
sS'saks_0454318336731.jpg'
p1746
I2141
sS'nordstrom_1007892.jpg'
p1747
I1329
sS'nordstrom_911266.jpg'
p1748
I873
sS'barneys_502537599.jpg'
p1749
I1139
sS'saks_0442047763782.jpg'
p1750
I2895
sS'saks_0469648099898.jpg'
p1751
I2943
sS'nordstrom_844447.jpg'
p1752
I3026
sS'barneys_503662029.jpg'
p1753
I1257
sS'nordstrom_1000638.jpg'
p1754
I1288
sS'nordstrom_999182_4.jpg'
p1755
I1721
sS'nordstrom_715311_1.jpg'
p1756
I2761
sS'nordstrom_830191.jpg'
p1757
I790
sS'saks_0468248699828.jpg'
p1758
I2588
sS'nordstrom_909074_3.jpg'
p1759
I2359
sS'saks_0442020538444.jpg'
p1760
I2892
sS'saks_0468237228138.jpg'
p1761
I2577
sS'nordstrom_352385.jpg'
p1762
I1469
sS'saks_0441285393669.jpg'
p1763
I1790
sS'saks_0400086753839.jpg'
p1764
I1741
sS'saks_0468248709671.jpg'
p1765
I2592
sS'saks_0469641433699.jpg'
p1766
I3185
sS'nordstrom_829807.jpg'
p1767
I1560
sS'nordstrom_1001087.jpg'
p1768
I2695
sS'barneys_503151748.jpg'
p1769
I71
sS'nordstrom_888934.jpg'
p1770
I852
sS'saks_0448835625850.jpg'
p1771
I1953
sS'saks_0437837713320.jpg'
p1772
I957
sS'nordstrom_918060.jpg'
p1773
I2363
sS'saks_0440480681861.jpg'
p1774
I2460
sS'barneys_503789215.jpg'
p1775
I2292
sS'saks_0468248712879.jpg'
p1776
I1066
sS'nordstrom_1034922.jpg'
p1777
I2976
sS'barneys_503549671.jpg'
p1778
I153
sS'saks_0448835684314.jpg'
p1779
I3143
sS'barneys_503642853.jpg'
p1780
I1239
sS'nordstrom_993663.jpg'
p1781
I2381
sS'nordstrom_859869.jpg'
p1782
I1627
sS'nordstrom_1030394.jpg'
p1783
I1370
sS'saks_0442044731296.jpg'
p1784
I995
sS'saks_0400086894157.jpg'
p1785
I927
sS'nordstrom_845366.jpg'
p1786
I3027
sS'nordstrom_1007478.jpg'
p1787
I2704
sS'nordstrom_982359.jpg'
p1788
I908
sS'barneys_503400840.jpg'
p1789
I1188
sS'saks_0469644324536.jpg'
p1790
I1094
sS'barneys_503549915.jpg'
p1791
I157
sS'saks_0448881243329.jpg'
p1792
I399
sS'nordstrom_862768_1.jpg'
p1793
I2816
sS'nordstrom_802705.jpg'
p1794
I757
sS'nordstrom_870101.jpg'
p1795
I3065
sS'saks_0471969796707.jpg'
p1796
I499
sS'nordstrom_938508.jpg'
p1797
I2867
sS'nordstrom_865291.jpg'
p1798
I2821
sS'nordstrom_943277.jpg'
p1799
I1687
sS'nordstrom_676431.jpg'
p1800
I250
sS'nordstrom_353642.jpg'
p1801
I680
sS'nordstrom_677183.jpg'
p1802
I251
sS'barneys_503732909.jpg'
p1803
I1267
sS'saks_0448876552665.jpg'
p1804
I1023
sS'saks_0400086652613.jpg'
p1805
I2400
sS'nordstrom_1038830.jpg'
p1806
I2735
sS'nordstrom_899321.jpg'
p1807
I1668
sS'saks_0448879707284.jpg'
p1808
I2912
sS'saks_0468248707882.jpg'
p1809
I2168
sS'barneys_503643328.jpg'
p1810
I542
sS'nordstrom_717078.jpg'
p1811
I735
sS'barneys_503374969.jpg'
p1812
I108
sS'saks_0452489445795.jpg'
p1813
I2067
sS'nordstrom_909089_1.jpg'
p1814
I870
sS'nordstrom_1069760.jpg'
p1815
I649
sS'nordstrom_863205.jpg'
p1816
I2817
sS'nordstrom_358298.jpg'
p1817
I211
sS'saks_0469678258821.jpg'
p1818
I2199
sS'barneys_501229368.jpg'
p1819
I5
sS'saks_0441944450559.jpg'
p1820
I1838
sS'nordstrom_461608.jpg'
p1821
I695
sS'saks_0442368761825.jpg'
p1822
I1920
sS'barneys_503696404.jpg'
p1823
I1266
sS'barneys_502708089.jpg'
p1824
I2656
sS'saks_0471914242617.jpg'
p1825
I492
sS'barneys_503177680.jpg'
p1826
I513
sS'saks_0452537135418.jpg'
p1827
I2916
sS'nordstrom_906387_15.jpg'
p1828
I1675
sS'saks_0452469139355.jpg'
p1829
I412
sS'saks_0448880685830.jpg'
p1830
I398
sS'nordstrom_838385.jpg'
p1831
I1574
sS'nordstrom_70183.jpg'
p1832
I2759
sS'nordstrom_483494.jpg'
p1833
I234
sS'saks_0441944448563.jpg'
p1834
I2499
sS'barneys_503549232.jpg'
p1835
I149
sS'nordstrom_968723_3.jpg'
p1836
I893
sS'barneys_503785237.jpg'
p1837
I2290
sS'nordstrom_541897.jpg'
p1838
I241
sS'nordstrom_310070.jpg'
p1839
I196
sS'nordstrom_961264_2.jpg'
p1840
I1693
sS'saks_0452490852940.jpg'
p1841
I2071
sS'saks_0442044720498.jpg'
p1842
I1882
sS'nordstrom_842964.jpg'
p1843
I2795
sS'nordstrom_943248.jpg'
p1844
I880
sS'saks_0452403005036.jpg'
p1845
I410
sS'barneys_502734973.jpg'
p1846
I2659
sS'saks_0413445494844.jpg'
p1847
I948
sS'saks_0468248699156.jpg'
p1848
I2587
sS'barneys_503489975.jpg'
p1849
I133
sS'saks_0469695634059.jpg'
p1850
I490
sS'barneys_158585078.jpg'
p1851
I0
sS'saks_0454318311141.jpg'
p1852
I1039
sS'barneys_503185160.jpg'
p1853
I2209
sS'barneys_503666872.jpg'
p1854
I547
sS'nordstrom_837924.jpg'
p1855
I2790
sS'nordstrom_260405.jpg'
p1856
I1457
sS'barneys_503730061.jpg'
p1857
I552
sS'saks_0441285683746.jpg'
p1858
I1791
sS'saks_0453410033012.jpg'
p1859
I1035
sS'saks_0452446209200.jpg'
p1860
I2043
sS'nordstrom_996445.jpg'
p1861
I1717
sS'saks_0448863543546.jpg'
p1862
I1985
sS'saks_0442248161493.jpg'
p1863
I1904
sS'nordstrom_1034348.jpg'
p1864
I1386
sS'barneys_503856720.jpg'
p1865
I1286
sS'nordstrom_1012312.jpg'
p1866
I1335
sS'barneys_502537439.jpg'
p1867
I1135
sS'saks_0453438322105.jpg'
p1868
I2554
sS'barneys_503663239.jpg'
p1869
I2225
sS'nordstrom_383434_4.jpg'
p1870
I2347
sS'saks_0448807730865.jpg'
p1871
I1938
sS'barneys_503727304.jpg'
p1872
I2246
sS'saks_0448835672946.jpg'
p1873
I1969
sS'saks_0441947840555.jpg'
p1874
I1854
sS'nordstrom_1028867.jpg'
p1875
I606
sS'barneys_503400808.jpg'
p1876
I1187
sS'nordstrom_1038705.jpg'
p1877
I2733
sS'nordstrom_892195.jpg'
p1878
I857
sS'saks_0469612201616.jpg'
p1879
I462
sS'barneys_503573794.jpg'
p1880
I1223
sS'saks_0448897362984.jpg'
p1881
I2007
sS'saks_0468255177227.jpg'
p1882
I2593
sS'nordstrom_902787.jpg'
p1883
I2354
sS'saks_0452576793099.jpg'
p1884
I1033
sS'saks_0468634707755.jpg'
p1885
I1071
sS'saks_0471921943569.jpg'
p1886
I493
sS'nordstrom_449952.jpg'
p1887
I218
sS'nordstrom_507384.jpg'
p1888
I2750
sS'nordstrom_969458_3.jpg'
p1889
I894
sS'nordstrom_1060165.jpg'
p1890
I180
sS'saks_0469637150845.jpg'
p1891
I471
sS'barneys_502536385.jpg'
p1892
I2203
sS'nordstrom_870766.jpg'
p1893
I825
sS'saks_0454382429513.jpg'
p1894
I1050
sS'nordstrom_829846.jpg'
p1895
I1561
sS'saks_0469644400759.jpg'
p1896
I2626
sS'nordstrom_1016394.jpg'
p1897
I172
sS'saks_0469614810212.jpg'
p1898
I467
sS'nordstrom_1017830.jpg'
p1899
I1348
sS'saks_0442037198082.jpg'
p1900
I1881
sS'saks_0442339664827.jpg'
p1901
I1915
sS'saks_0469642231423.jpg'
p1902
I2614
sS'saks_0454318463550.jpg'
p1903
I2143
sS'nordstrom_909074_2.jpg'
p1904
I2358
sS'saks_0440445384035.jpg'
p1905
I2454
sS'nordstrom_856898.jpg'
p1906
I302
sS'saks_0468647927690.jpg'
p1907
I2596
sS'nordstrom_44431.jpg'
p1908
I2740
sS'saks_0452597307770.jpg'
p1909
I427
sS'nordstrom_1018977.jpg'
p1910
I2721
sS'nordstrom_1021841.jpg'
p1911
I1356
sS'saks_0454343124501.jpg'
p1912
I2147
sS'saks_0459233936431.jpg'
p1913
I2162
sS'saks_0437834260643.jpg'
p1914
I2419
sS'nordstrom_859521.jpg'
p1915
I809
sS'barneys_503330575.jpg'
p1916
I89
sS'nordstrom_934070_2.jpg'
p1917
I878
sS'saks_0442248164296.jpg'
p1918
I2524
sS'nordstrom_1009648.jpg'
p1919
I2705
sS'saks_0446634371114.jpg'
p1920
I2907
sS'saks_0441930645983.jpg'
p1921
I1812
sS'saks_0459235968638.jpg'
p1922
I445
sS'saks_0454372133130.jpg'
p1923
I1049
sS'saks_0437866893222.jpg'
p1924
I2445
sS'nordstrom_859573.jpg'
p1925
I810
sS'saks_0452537128465.jpg'
p1926
I2098
sS'barneys_503151726.jpg'
p1927
I70
sS'nordstrom_837162.jpg'
p1928
I1568
sS'nordstrom_821825.jpg'
p1929
I2777
sS'barneys_159016433.jpg'
p1930
I1109
sS'nordstrom_77926.jpg'
p1931
I752
sS'nordstrom_406670.jpg'
p1932
I690
sS'barneys_503486837.jpg'
p1933
I128
sS'nordstrom_1007421.jpg'
p1934
I2703
sS'nordstrom_862768.jpg'
p1935
I2815
sS'barneys_503643666.jpg'
p1936
I1246
sS'nordstrom_870553.jpg'
p1937
I2833
sS'saks_0471972069843.jpg'
p1938
I2651
sS'saks_0448899072324.jpg'
p1939
I2009
sS'nordstrom_800099.jpg'
p1940
I2765
sS'nordstrom_110039_2.jpg'
p1941
I652
sS'saks_0400086605737.jpg'
p1942
I2393
sS'barneys_503572296.jpg'
p1943
I2218
sS'saks_0441941858808.jpg'
p1944
I1836
sS'nordstrom_881548.jpg'
p1945
I2850
sS'barneys_503688003.jpg'
p1946
I2233
sS'nordstrom_843790.jpg'
p1947
I1588
sS'barneys_503537629.jpg'
p1948
I532
sS'saks_0468248700913.jpg'
p1949
I2589
sS'saks_0448835624273.jpg'
p1950
I1951
sS'saks_0471972070221.jpg'
p1951
I2652
sS'nordstrom_1037982.jpg'
p1952
I1397
sS'saks_0452441852760.jpg'
p1953
I2033
sS'nordstrom_660085.jpg'
p1954
I2753
sS'saks_0441935002309.jpg'
p1955
I346
sS'nordstrom_883852.jpg'
p1956
I1652
sS'saks_0453448824613.jpg'
p1957
I2556
sS'saks_0448881244043.jpg'
p1958
I400
sS'saks_0471952635914.jpg'
p1959
I3199
sS'saks_0440934298607.jpg'
p1960
I3111
sS'saks_0440990004808.jpg'
p1961
I328
sS'nordstrom_1006419.jpg'
p1962
I1315
sS'nordstrom_344599.jpg'
p1963
I679
sS'nordstrom_817449.jpg'
p1964
I775
sS'saks_0441948141217.jpg'
p1965
I1856
sS'nordstrom_996188.jpg'
p1966
I916
sS'saks_0441944564300.jpg'
p1967
I1843
sS'nordstrom_465923.jpg'
p1968
I229
sS'saks_0441948600165.jpg'
p1969
I1861
sS'saks_0469644324086.jpg'
p1970
I3189
sS'barneys_503686684.jpg'
p1971
I548
sS'barneys_503502710.jpg'
p1972
I529
sS'nordstrom_788336.jpg'
p1973
I755
sS'nordstrom_1039578.jpg'
p1974
I175
sS'nordstrom_372142_46.jpg'
p1975
I686
sS'saks_0441946311353.jpg'
p1976
I2503
sS'nordstrom_1001614.jpg'
p1977
I2699
sS'barneys_503454110.jpg'
p1978
I523
sS'saks_0400086753983.jpg'
p1979
I1745
sS'saks_0469652868701.jpg'
p1980
I2945
sS'nordstrom_1011013_1.jpg'
p1981
I2707
sS'nordstrom_821468.jpg'
p1982
I783
sS'nordstrom_1030768.jpg'
p1983
I2319
sS'nordstrom_902843.jpg'
p1984
I1672
sS'nordstrom_896256.jpg'
p1985
I1665
sS'nordstrom_815325.jpg'
p1986
I1545
sS'nordstrom_372142_51.jpg'
p1987
I687
sS'nordstrom_953006_1.jpg'
p1988
I2365
sS'barneys_503537773.jpg'
p1989
I139
sS'nordstrom_1032005.jpg'
p1990
I1376
sS'saks_0441939118396.jpg'
p1991
I1831
sS'barneys_503686716.jpg'
p1992
I549
sS'saks_0437837700122.jpg'
p1993
I2423
sS'barneys_501074102.jpg'
p1994
I1112
sS'saks_0453490801440.jpg'
p1995
I1038
sS'nordstrom_833526.jpg'
p1996
I2786
sS'nordstrom_1002840.jpg'
p1997
I562
sS'nordstrom_869029.jpg'
p1998
I3059
sS'saks_0446635548690.jpg'
p1999
I2909
sS'barneys_503068970.jpg'
p2000
I2667
sS'barneys_503366914.jpg'
p2001
I105
sS'saks_0441213528316.jpg'
p2002
I980
sS'barneys_503341033.jpg'
p2003
I98
sS'saks_0469647901895.jpg'
p2004
I2631
sS'nordstrom_838226_1.jpg'
p2005
I298
sS'saks_0469674525682.jpg'
p2006
I2639
sS'barneys_502734848.jpg'
p2007
I33
sS'nordstrom_895457.jpg'
p2008
I861
sS'saks_0441910028768.jpg'
p2009
I1798
sS'saks_0448885271731.jpg'
p2010
I2001
sS'barneys_503694705.jpg'
p2011
I2955
sS'saks_0471948370447.jpg'
p2012
I497
sS'saks_0413445501788.jpg'
p2013
I950
sS'saks_0454361240498.jpg'
p2014
I2148
sS'nordstrom_277451_10.jpg'
p2015
I670
sS'nordstrom_875952.jpg'
p2016
I3072
sS'nordstrom_89736.jpg'
p2017
I307
sS'nordstrom_1016814.jpg'
p2018
I2711
sS'saks_0468634692983.jpg'
p2019
I1070
sS'nordstrom_661855_6.jpg'
p2020
I1503
sS'barneys_503642595.jpg'
p2021
I1233
sS'saks_0448887604629.jpg'
p2022
I2006
sS'nordstrom_316558.jpg'
p2023
I1462
sS'nordstrom_1000295.jpg'
p2024
I2694
sS'nordstrom_888847.jpg'
p2025
I3083
sS'saks_0402320529740.jpg'
p2026
I315
sS'nordstrom_821691.jpg'
p2027
I1548
sS'saks_0446634369777.jpg'
p2028
I1934
sS'barneys_503549577.jpg'
p2029
I535
sS'barneys_503341177.jpg'
p2030
I103
sS'saks_0400086712952.jpg'
p2031
I3102
sS'nordstrom_1038796.jpg'
p2032
I1399
sS'nordstrom_1077369.jpg'
p2033
I181
sS'barneys_503141393.jpg'
p2034
I2671
sS'nordstrom_865401.jpg'
p2035
I820
sS'barneys_503643634.jpg'
p2036
I1244
sS'barneys_502988513.jpg'
p2037
I1157
sS'nordstrom_960310.jpg'
p2038
I1691
sS'saks_0437845468007.jpg'
p2039
I2431
sS'nordstrom_1031390.jpg'
p2040
I1373
sS'saks_0452537125099.jpg'
p2041
I2094
sS'saks_0442314060194.jpg'
p2042
I1006
sS'barneys_503703146.jpg'
p2043
I2241
sS'nordstrom_980419.jpg'
p2044
I1699
sS'nordstrom_680120.jpg'
p2045
I1508
sS'saks_0469602884898.jpg'
p2046
I2598
sS'saks_0440929067539.jpg'
p2047
I325
sS'barneys_503177970.jpg'
p2048
I1163
sS'saks_0440990021874.jpg'
p2049
I2472
sS'saks_0452501489240.jpg'
p2050
I2074
sS'barneys_501074733.jpg'
p2051
I1113
sS'barneys_503776644.jpg'
p2052
I2278
sS'nordstrom_384886_1.jpg'
p2053
I2350
sS'saks_0456748403632.jpg'
p2054
I2572
sS'barneys_503687153.jpg'
p2055
I550
sS'saks_0448835677958.jpg'
p2056
I394
sS'barneys_503764145.jpg'
p2057
I556
sS'nordstrom_1049969.jpg'
p2058
I1412
sS'barneys_502536405.jpg'
p2059
I2204
sS'nordstrom_808999.jpg'
p2060
I1535
sS'saks_0413400689964.jpg'
p2061
I932
sS'nordstrom_668715.jpg'
p2062
I1504
sS'saks_0440434397374.jpg'
p2063
I318
sS'saks_0462234484771.jpg'
p2064
I3167
sS'nordstrom_455445_1.jpg'
p2065
I1481
sS'saks_0454318334942.jpg'
p2066
I1042
sS'saks_0442211587299.jpg'
p2067
I1891
sS'saks_0452406500194.jpg'
p2068
I2013
sS'saks_0441999711056.jpg'
p2069
I360
sS'nordstrom_836435.jpg'
p2070
I793
sS'saks_0454318302798.jpg'
p2071
I3159
sS'nordstrom_412593.jpg'
p2072
I1479
sS'saks_0441946310899.jpg'
p2073
I2502
sS'nordstrom_257537.jpg'
p2074
I1456
sS'saks_0413494063626.jpg'
p2075
I952
sS'saks_0454392517804.jpg'
p2076
I442
sS'nordstrom_1057562.jpg'
p2077
I1434
sS'saks_0469642870417.jpg'
p2078
I2617
sS'barneys_502736853.jpg'
p2079
I35
sS'nordstrom_883818.jpg'
p2080
I841
sS'barneys_503177023.jpg'
p2081
I2674
sS'nordstrom_1019721.jpg'
p2082
I2315
sS'saks_0448861113994.jpg'
p2083
I1982
sS'barneys_502415480.jpg'
p2084
I504
sS'saks_0442219102371.jpg'
p2085
I1893
sS'barneys_503654406.jpg'
p2086
I1248
sS'saks_0442003443987.jpg'
p2087
I361
sS'saks_0469612204747.jpg'
p2088
I464
sS'saks_0454318299203.jpg'
p2089
I3158
sS'nordstrom_1035061.jpg'
p2090
I1390
sS'saks_0441937333029.jpg'
p2091
I1824
sS'nordstrom_1057363.jpg'
p2092
I1432
sS'barneys_503751000.jpg'
p2093
I2956
sS'saks_0441213695902.jpg'
p2094
I1784
sS'nordstrom_236914.jpg'
p2095
I1454
sS'saks_0441913143826.jpg'
p2096
I340
sS'nordstrom_813580.jpg'
p2097
I769
sS'nordstrom_902883.jpg'
p2098
I2355
sS'barneys_502533863.jpg'
p2099
I2654
sS'nordstrom_1012152.jpg'
p2100
I1334
sS'barneys_503642519.jpg'
p2101
I539
sS'nordstrom_948644.jpg'
p2102
I2869
sS'nordstrom_880787.jpg'
p2103
I837
sS'saks_0452582245339.jpg'
p2104
I2126
sS'barneys_503083193.jpg'
p2105
I64
sS'saks_0453438283147.jpg'
p2106
I2550
sS'barneys_503475218.jpg'
p2107
I1195
sS'nordstrom_865107_1.jpg'
p2108
I3045
sS'nordstrom_842015.jpg'
p2109
I2793
sS'saks_0400086712478.jpg'
p2110
I3100
sS'saks_0413404157469.jpg'
p2111
I934
sS'nordstrom_881206.jpg'
p2112
I2847
sS'barneys_503642391.jpg'
p2113
I1230
sS'nordstrom_1068254.jpg'
p2114
I645
sS'nordstrom_1062229.jpg'
p2115
I1440
sS'saks_0452469339847.jpg'
p2116
I2050
sS'saks_0441900388650.jpg'
p2117
I1793
sS'saks_0462234486577.jpg'
p2118
I1052
sS'barneys_503246025.jpg'
p2119
I1173
sS'saks_0469610620051.jpg'
p2120
I461
sS'saks_0441929455371.jpg'
p2121
I1809
sS'saks_0440434377468.jpg'
p2122
I1754
sS'nordstrom_254475.jpg'
p2123
I662
sS'saks_0454318313428.jpg'
p2124
I1041
sS'nordstrom_1069631.jpg'
p2125
I1444
sS'saks_0448843252024.jpg'
p2126
I1974
sS'saks_0462234481077.jpg'
p2127
I3165
sS'nordstrom_466031.jpg'
p2128
I1483
sS'saks_0440929062671.jpg'
p2129
I972
sS'nordstrom_1016234.jpg'
p2130
I588
sS'saks_0456737088956.jpg'
p2131
I3163
sS'barneys_502731111.jpg'
p2132
I30
sS'barneys_503643236.jpg'
p2133
I541
sS'saks_0454392392869.jpg'
p2134
I440
sS'barneys_502765975.jpg'
p2135
I40
sS'saks_0452597309286.jpg'
p2136
I428
sS'barneys_502735259.jpg'
p2137
I2660
sS'barneys_503186077.jpg'
p2138
I1165
sS'saks_0446604805038.jpg'
p2139
I1929
sS'nordstrom_1010474.jpg'
p2140
I2706
sS'saks_0440990021669.jpg'
p2141
I2471
sS'barneys_502160600.jpg'
p2142
I1122
sS'saks_0471961956611.jpg'
p2143
I498
sS'nordstrom_1013985.jpg'
p2144
I2307
sS'nordstrom_812426_3.jpg'
p2145
I1539
sS'saks_0400086697498.jpg'
p2146
I314
sS'saks_0448848485335.jpg'
p2147
I1980
sS'saks_0454361237450.jpg'
p2148
I1048
sS'barneys_502870469.jpg'
p2149
I54
sS'saks_0400086598937.jpg'
p2150
I312
sS'barneys_503463437.jpg'
p2151
I524
sS'nordstrom_986480_14.jpg'
p2152
I2876
sS'nordstrom_358298_1.jpg'
p2153
I212
sS'saks_0471958342588.jpg'
p2154
I2648
sS'saks_0452584595746.jpg'
p2155
I424
sS'nordstrom_988758.jpg'
p2156
I913
sS'saks_0454392396287.jpg'
p2157
I441
sS'saks_0452446666232.jpg'
p2158
I2047
sS'nordstrom_1039083.jpg'
p2159
I1404
sS'saks_0441995205627.jpg'
p2160
I357
sS'barneys_503796045.jpg'
p2161
I2961
sS'saks_0400086605768.jpg'
p2162
I1723
sS'saks_0469637153679.jpg'
p2163
I2607
sS'saks_0442231577751.jpg'
p2164
I2515
sS'saks_0469675691799.jpg'
p2165
I2198
sS'saks_0469696711247.jpg'
p2166
I2202
sS'nordstrom_743274.jpg'
p2167
I265
sS'nordstrom_541893.jpg'
p2168
I240
sS'saks_0442016150544.jpg'
p2169
I366
sS'nordstrom_941339.jpg'
p2170
I2868
sS'saks_0454343118319.jpg'
p2171
I2565
sS'barneys_503776804.jpg'
p2172
I2284
sS'nordstrom_849572.jpg'
p2173
I2807
sS'nordstrom_759197.jpg'
p2174
I747
sS'nordstrom_826761.jpg'
p2175
I2778
sS'barneys_503244745.jpg'
p2176
I80
sS'saks_0441903451832.jpg'
p2177
I1795
sS'barneys_503654466.jpg'
p2178
I1250
sS'nordstrom_934026.jpg'
p2179
I2859
sS'nordstrom_977933_1.jpg'
p2180
I2377
sS'saks_0437852617733.jpg'
p2181
I2440
sS'barneys_503488499.jpg'
p2182
I527
sS'nordstrom_1001267.jpg'
p2183
I1294
sS'saks_0454318339060.jpg'
p2184
I2142
sS'barneys_503456982.jpg'
p2185
I2679
sS'nordstrom_841966.jpg'
p2186
I794
sS'saks_0442037024718.jpg'
p2187
I3121
sS'barneys_502890799.jpg'
p2188
I1155
sS'saks_0446635534488.jpg'
p2189
I3138
sS'nordstrom_453439.jpg'
p2190
I221
sS'barneys_502621165.jpg'
p2191
I1143
sS'saks_0448835622699.jpg'
p2192
I1946
sS'nordstrom_465281.jpg'
p2193
I696
sS'saks_0441941868104.jpg'
p2194
I3119
sS'barneys_503468924.jpg'
p2195
I126
sS'saks_0469652878373.jpg'
p2196
I3197
sS'barneys_503044011.jpg'
p2197
I63
sS'saks_0441988224628.jpg'
p2198
I352
sS'nordstrom_850234.jpg'
p2199
I1601
sS'nordstrom_202887_22.jpg'
p2200
I658
sS'nordstrom_1011107.jpg'
p2201
I1332
sS'barneys_503209069.jpg'
p2202
I2216
sS'nordstrom_612236.jpg'
p2203
I1491
sS'nordstrom_656594.jpg'
p2204
I728
sS'saks_0452546635619.jpg'
p2205
I3155
sS'saks_0442231586838.jpg'
p2206
I1897
sS'nordstrom_1061941.jpg'
p2207
I1439
sS'saks_0469644298288.jpg'
p2208
I1092
sS'nordstrom_893309.jpg'
p2209
I859
sS'saks_0471932391182.jpg'
p2210
I2642
sS'nordstrom_1050067.jpg'
p2211
I1414
sS'barneys_503573631.jpg'
p2212
I1219
sS'barneys_503779206.jpg'
p2213
I1277
sS'nordstrom_649378.jpg'
p2214
I1497
sS'saks_0454318292952.jpg'
p2215
I2557
sS'barneys_503855382.jpg'
p2216
I2298
sS'nordstrom_869050.jpg'
p2217
I3061
sS'nordstrom_923683.jpg'
p2218
I1682
sS'nordstrom_1051824.jpg'
p2219
I1418
sS'nordstrom_973778.jpg'
p2220
I1696
sS'nordstrom_972561.jpg'
p2221
I900
sS'barneys_503643446.jpg'
p2222
I1242
sS'saks_0469609641678.jpg'
p2223
I2925
sS'nordstrom_662429.jpg'
p2224
I2754
sS'nordstrom_868439.jpg'
p2225
I3056
sS'barneys_503141377.jpg'
p2226
I2670
sS'barneys_503644441.jpg'
p2227
I546
sS'saks_0452403716253.jpg'
p2228
I2011
sS'nordstrom_1032755.jpg'
p2229
I1379
sS'nordstrom_826305.jpg'
p2230
I1556
sS'nordstrom_1025097.jpg'
p2231
I1360
sS'saks_0442089116072.jpg'
p2232
I374
sS'saks_0469644399640.jpg'
p2233
I2625
sS'saks_0442037566850.jpg'
p2234
I3124
sS'nordstrom_898414.jpg'
p2235
I869
sS'saks_0469644299094.jpg'
p2236
I1093
sS'saks_0469636657383.jpg'
p2237
I2603
sS'saks_0454318342367.jpg'
p2238
I432
sS'saks_0441933272278.jpg'
p2239
I345
sS'saks_0448876544066.jpg'
p2240
I1993
sS'nordstrom_1074545.jpg'
p2241
I650
sS'nordstrom_476789_1.jpg'
p2242
I2746
sS'nordstrom_205866.jpg'
p2243
I1453
sS'barneys_501424639.jpg'
p2244
I1117
sS'saks_0441987313088.jpg'
p2245
I1865
sS'barneys_503654482.jpg'
p2246
I1251
sS'saks_0468647919640.jpg'
p2247
I2920
sS'saks_0442037199171.jpg'
p2248
I3123
sS'nordstrom_1038906.jpg'
p2249
I1401
sS'nordstrom_575383.jpg'
p2250
I709
sS'saks_0400086723031.jpg'
p2251
I2411
sS'nordstrom_1018227.jpg'
p2252
I589
sS'saks_0446644638627.jpg'
p2253
I2543
sS'nordstrom_263952_1.jpg'
p2254
I191
sS'saks_0442339688007.jpg'
p2255
I1010
sS'nordstrom_689982.jpg'
p2256
I1512
sS'saks_0400086772658.jpg'
p2257
I2414
sS'nordstrom_301433.jpg'
p2258
I1460
sS'nordstrom_528044.jpg'
p2259
I2990
sS'saks_0441948192387.jpg'
p2260
I1858
sS'nordstrom_612219.jpg'
p2261
I1490
sS'saks_0440929051002.jpg'
p2262
I2464
sS'nordstrom_1032698.jpg'
p2263
I1378
sS'nordstrom_638461_2.jpg'
p2264
I724
sS'saks_0441995142915.jpg'
p2265
I2506
sS'barneys_503662712.jpg'
p2266
I1263
sS'barneys_503643879.jpg'
p2267
I545
sS'saks_0441209874120.jpg'
p2268
I979
sS'nordstrom_827672.jpg'
p2269
I2780
sS'barneys_503732821.jpg'
p2270
I2255
sS'nordstrom_504955.jpg'
p2271
I2749
sS'saks_0452546604127.jpg'
p2272
I2111
sS'nordstrom_818496.jpg'
p2273
I777
sS'barneys_503325294.jpg'
p2274
I86
sS'barneys_503212613.jpg'
p2275
I1170
sS'barneys_503688189.jpg'
p2276
I2236
sS'nordstrom_829418_1.jpg'
p2277
I2785
sS'nordstrom_1031163.jpg'
p2278
I613
sS'saks_0469652753434.jpg'
p2279
I3193
sS'nordstrom_983206.jpg'
p2280
I1708
sS'nordstrom_449851.jpg'
p2281
I216
sS'nordstrom_1034818.jpg'
p2282
I1389
sS'saks_0400086626284.jpg'
p2283
I1727
sS'nordstrom_1075365.jpg'
p2284
I1448
sS'saks_0400086652600.jpg'
p2285
I1732
sS'saks_0452489388504.jpg'
p2286
I2059
sS'saks_0469642478019.jpg'
p2287
I3188
sS'barneys_503234605.jpg'
p2288
I1172
sS'nordstrom_1022854.jpg'
p2289
I2725
sS'barneys_503732887.jpg'
p2290
I2256
sS'barneys_503732311.jpg'
p2291
I2684
sS'nordstrom_1003214.jpg'
p2292
I2701
sS'saks_0440485826168.jpg'
p2293
I322
sS'barneys_503341129.jpg'
p2294
I102
sS'saks_0440403854648.jpg'
p2295
I1752
sS'saks_0440495872513.jpg'
p2296
I1767
sS'nordstrom_823610.jpg'
p2297
I785
sS'saks_0452597306162.jpg'
p2298
I426
sS'saks_0440445381010.jpg'
p2299
I2452
sS'barneys_503340395.jpg'
p2300
I94
sS'nordstrom_1036850.jpg'
p2301
I1394
sS'barneys_503779298.jpg'
p2302
I1280
sS'saks_0446635541516.jpg'
p2303
I1014
sS'saks_0400086605754.jpg'
p2304
I2394
sS'saks_0440479537018.jpg'
p2305
I2455
sS'nordstrom_1034471.jpg'
p2306
I619
sS'barneys_503667310.jpg'
p2307
I2226
sS'saks_0452537118558.jpg'
p2308
I2086
sS'nordstrom_1013805.jpg'
p2309
I2708
sS'nordstrom_870771.jpg'
p2310
I3069
sS'saks_0400086771573.jpg'
p2311
I1746
sS'nordstrom_856365.jpg'
p2312
I1611
sS'nordstrom_391042.jpg'
p2313
I2988
sS'saks_0469644391811.jpg'
p2314
I2622
sS'nordstrom_1051327.jpg'
p2315
I630
sS'saks_0400086697203.jpg'
p2316
I2402
sS'barneys_503466889.jpg'
p2317
I123
sS'saks_0442231586654.jpg'
p2318
I1896
sS'nordstrom_827737.jpg'
p2319
I2783
sS'nordstrom_977897_1.jpg'
p2320
I907
sS'nordstrom_1023342.jpg'
p2321
I595
sS'nordstrom_524981_1.jpg'
p2322
I1487
sS'nordstrom_1002092.jpg'
p2323
I560
sS'barneys_503177664.jpg'
p2324
I512
sS'nordstrom_871798.jpg'
p2325
I829
sS'saks_0445228829864.jpg'
p2326
I2535
sS'nordstrom_798386.jpg'
p2327
I3001
sS'nordstrom_841537.jpg'
p2328
I3019
sS'saks_0400086758572.jpg'
p2329
I2887
sS'nordstrom_1017641.jpg'
p2330
I1347
sS'nordstrom_915651_2.jpg'
p2331
I2362
sS'nordstrom_884793.jpg'
p2332
I3076
sS'nordstrom_1068148.jpg'
p2333
I644
sS'saks_0452597276144.jpg'
p2334
I2128
sS'barneys_502806452.jpg'
p2335
I2661
sS'saks_0441913282501.jpg'
p2336
I1802
sS'saks_0441944561071.jpg'
p2337
I993
sS'nordstrom_834849.jpg'
p2338
I292
sS'nordstrom_980736.jpg'
p2339
I1702
sS'saks_0437834258442.jpg'
p2340
I1751
sS'saks_0441910232622.jpg'
p2341
I337
sS'nordstrom_1022183.jpg'
p2342
I1357
sS'saks_0452537120179.jpg'
p2343
I2089
sS'saks_0441213528170.jpg'
p2344
I1782
sS'saks_0440929058506.jpg'
p2345
I2466
sS'saks_0442314042275.jpg'
p2346
I2527
sS'nordstrom_1030153.jpg'
p2347
I1369
sS'nordstrom_625424.jpg'
p2348
I720
sS'nordstrom_1057577.jpg'
p2349
I1435
sS'nordstrom_1064930.jpg'
p2350
I640
sS'nordstrom_453437.jpg'
p2351
I220
sS'nordstrom_685346.jpg'
p2352
I1511
sS'nordstrom_848535.jpg'
p2353
I2800
sS'nordstrom_304734.jpg'
p2354
I194
sS'saks_0462234490659.jpg'
p2355
I1054
sS'nordstrom_862097_6.jpg'
p2356
I1631
sS'nordstrom_943218.jpg'
p2357
I3093
sS'saks_0454397309503.jpg'
p2358
I2158
sS'saks_0469644399268.jpg'
p2359
I2624
sS'nordstrom_853605.jpg'
p2360
I3034
sS'nordstrom_902702.jpg'
p2361
I2353
sS'nordstrom_812945.jpg'
p2362
I766
sS'saks_0442093082103.jpg'
p2363
I1889
sS'saks_0442299307918.jpg'
p2364
I382
sS'nordstrom_1063066.jpg'
p2365
I638
sS'nordstrom_1014571.jpg'
p2366
I1343
sS'nordstrom_1002241.jpg'
p2367
I2301
sS'barneys_503339893.jpg'
p2368
I1184
sS'nordstrom_1010935.jpg'
p2369
I571
sS'nordstrom_812565.jpg'
p2370
I763
sS'saks_0453438306372.jpg'
p2371
I2551
sS'nordstrom_850244.jpg'
p2372
I1602
sS'saks_0442012961878.jpg'
p2373
I1878
sS'nordstrom_865341.jpg'
p2374
I818
sS'saks_0454318294642.jpg'
p2375
I2560
sS'barneys_503778932.jpg'
p2376
I2287
sS'barneys_503642423.jpg'
p2377
I1231
sS'saks_0448874874738.jpg'
p2378
I1986
sS'barneys_502729149.jpg'
p2379
I26
sS'saks_0441937332435.jpg'
p2380
I1823
sS'saks_0441995150330.jpg'
p2381
I1868
sS'nordstrom_22358.jpg'
p2382
I659
sS'nordstrom_1001622.jpg'
p2383
I558
sS'saks_0446634371404.jpg'
p2384
I2908
sS'barneys_503776788.jpg'
p2385
I2283
sS'saks_0437848384557.jpg'
p2386
I967
sS'saks_0453448821087.jpg'
p2387
I3156
sS'nordstrom_889094_1.jpg'
p2388
I3085
sS'nordstrom_987575.jpg'
p2389
I1712
sS'nordstrom_636461.jpg'
p2390
I245
sS'barneys_503177264.jpg'
p2391
I2207
sS'nordstrom_895675.jpg'
p2392
I863
sS'nordstrom_352223.jpg'
p2393
I208
sS'nordstrom_823101.jpg'
p2394
I289
sS'nordstrom_614054.jpg'
p2395
I2997
sS'saks_0448847955532.jpg'
p2396
I2545
sS'nordstrom_855481.jpg'
p2397
I301
sS'saks_0441944774532.jpg'
p2398
I1844
sS'saks_0452489413343.jpg'
p2399
I2064
sS'barneys_503750880.jpg'
p2400
I2267
sS'saks_0452537132066.jpg'
p2401
I2100
sS'saks_0468237216906.jpg'
p2402
I2575
sS'saks_0440444553746.jpg'
p2403
I1759
sS'nordstrom_860174.jpg'
p2404
I1629
sS'barneys_503292967.jpg'
p2405
I1179
sS'saks_0437852617986.jpg'
p2406
I2441
sS'nordstrom_990552_3.jpg'
p2407
I2379
sS'nordstrom_1038284.jpg'
p2408
I174
sS'saks_0469640800683.jpg'
p2409
I2934
sS'saks_0454343119545.jpg'
p2410
I2145
sS'saks_0448847956713.jpg'
p2411
I1976
sS'nordstrom_866123.jpg'
p2412
I3049
sS'nordstrom_743333.jpg'
p2413
I266
sS'saks_0469647580182.jpg'
p2414
I2192
sS'saks_0448885283178.jpg'
p2415
I2003
sS'nordstrom_899213.jpg'
p2416
I1667
sS'saks_0452488266377.jpg'
p2417
I415
sS'nordstrom_992441.jpg'
p2418
I2380
sS'saks_0441948139917.jpg'
p2419
I994
sS'saks_0468647921254.jpg'
p2420
I2922
sS'saks_0452502458559.jpg'
p2421
I418
sS'nordstrom_1050518.jpg'
p2422
I1417
sS'barneys_503776564.jpg'
p2423
I2273
sS'barneys_503544727.jpg'
p2424
I1212
sS'saks_0400086655037.jpg'
p2425
I1733
sS'saks_0442352253329.jpg'
p2426
I1917
sS'nordstrom_834334.jpg'
p2427
I3015
sS'barneys_503779257.jpg'
p2428
I1278
sS'saks_0462210716742.jpg'
p2429
I1051
sS'saks_0441908674182.jpg'
p2430
I334
sS'nordstrom_825209.jpg'
p2431
I1549
sS'barneys_503292999.jpg'
p2432
I1180
sS'nordstrom_534277_2.jpg'
p2433
I2991
sS'nordstrom_497426_1.jpg'
p2434
I2748
sS'nordstrom_1016239.jpg'
p2435
I1346
sS'nordstrom_1006776.jpg'
p2436
I1324
sS'nordstrom_613178.jpg'
p2437
I1493
sS'barneys_503687322.jpg'
p2438
I2232
sS'barneys_501429268.jpg'
p2439
I1118
sS'nordstrom_1002732.jpg'
p2440
I1309
sS'nordstrom_1006550.jpg'
p2441
I1321
sS'nordstrom_934070.jpg'
p2442
I876
sS'nordstrom_973429.jpg'
p2443
I903
sS'saks_0441995152785.jpg'
p2444
I2507
sS'barneys_502191884.jpg'
p2445
I502
sS'nordstrom_618578.jpg'
p2446
I2999
sS'barneys_503778993.jpg'
p2447
I2289
sS'nordstrom_878743.jpg'
p2448
I835
sS'nordstrom_850163.jpg'
p2449
I1599
sS'barneys_503376423.jpg'
p2450
I112
sS'saks_0448847965616.jpg'
p2451
I1021
sS'saks_0469644403491.jpg'
p2452
I2629
sS'nordstrom_855811.jpg'
p2453
I805
sS'nordstrom_838221.jpg'
p2454
I296
sS'nordstrom_1022806.jpg'
p2455
I592
sS'saks_0400086610020.jpg'
p2456
I920
sS'nordstrom_938183.jpg'
p2457
I2865
sS'barneys_503642359.jpg'
p2458
I1229
sS'saks_0441940755986.jpg'
p2459
I2494
sS'nordstrom_793144.jpg'
p2460
I2764
sS'nordstrom_714076.jpg'
p2461
I732
sS'saks_0441997516691.jpg'
p2462
I1869
sS'barneys_502424224.jpg'
p2463
I17
sS'saks_0469637031274.jpg'
p2464
I470
sS'saks_0441299700040.jpg'
p2465
I982
sS'nordstrom_943287.jpg'
p2466
I881
sS'nordstrom_326805.jpg'
p2467
I203
sS'saks_0442037200006.jpg'
p2468
I2510
sS'nordstrom_867177.jpg'
p2469
I2827
sS'saks_0452546592448.jpg'
p2470
I2107
sS'nordstrom_869799.jpg'
p2471
I2831
sS'saks_0441213529887.jpg'
p2472
I2478
sS'nordstrom_1015828.jpg'
p2473
I586
sS'nordstrom_843795.jpg'
p2474
I1589
sS'saks_0441999817420.jpg'
p2475
I1874
sS'saks_0469636950248.jpg'
p2476
I2604
sS'barneys_503765796.jpg'
p2477
I2270
sS'nordstrom_895648.jpg'
p2478
I862
sS'saks_0469694577319.jpg'
p2479
I2200
sS'nordstrom_84407.jpg'
p2480
I1591
sS'barneys_503751016.jpg'
p2481
I2957
sS'barneys_502731159.jpg'
p2482
I31
sS'barneys_503654498.jpg'
p2483
I1252
sS'saks_0469637155451.jpg'
p2484
I2608
sS'barneys_502767353.jpg'
p2485
I42
sS'saks_0452537114581.jpg'
p2486
I2081
sS'nordstrom_1018349.jpg'
p2487
I2713
sS'saks_0469604343119.jpg'
p2488
I456
sS'saks_0442047761788.jpg'
p2489
I3125
sS'barneys_503778898.jpg'
p2490
I2286
sS'nordstrom_497473.jpg'
p2491
I1485
sS'nordstrom_798050.jpg'
p2492
I1526
sS'nordstrom_1012031.jpg'
p2493
I572
sS'saks_0469636747206.jpg'
p2494
I1084
sS'barneys_502550842.jpg'
p2495
I1140
sS'saks_0440479540094.jpg'
p2496
I2457
sS'saks_0400086848181.jpg'
p2497
I2416
sS'barneys_502550860.jpg'
p2498
I1141
sS'saks_0452546633493.jpg'
p2499
I3152
sS'saks_0440929072014.jpg'
p2500
I326
sS'nordstrom_902839.jpg'
p2501
I1671
sS'saks_0452537125730.jpg'
p2502
I2096
sS'nordstrom_78616.jpg'
p2503
I275
sS'barneys_503654212.jpg'
p2504
I2222
sS'nordstrom_1018983.jpg'
p2505
I2722
sS'barneys_502844604.jpg'
p2506
I2665
sS'nordstrom_895983.jpg'
p2507
I1663
sS'barneys_501644063.jpg'
p2508
I10
sS'nordstrom_859981.jpg'
p2509
I811
sS'saks_0468242506733.jpg'
p2510
I2581
sS'saks_0469687187471.jpg'
p2511
I488
sS'nordstrom_1055023.jpg'
p2512
I1430
sS'nordstrom_1001092.jpg'
p2513
I1293
sS'nordstrom_384886.jpg'
p2514
I2349
sS'nordstrom_953006.jpg'
p2515
I2364
sS'nordstrom_403406.jpg'
p2516
I1477
sS'nordstrom_836425_1.jpg'
p2517
I1563
sS'nordstrom_703430.jpg'
p2518
I257
sS'saks_0400086643851.jpg'
p2519
I1728
sS'nordstrom_870706.jpg'
p2520
I3068
sS'barneys_503741370.jpg'
p2521
I2259
sS'barneys_503732385.jpg'
p2522
I2686
sS'nordstrom_989103.jpg'
p2523
I1715
sS'saks_0400086630194.jpg'
p2524
I2398
sS'nordstrom_895134.jpg'
p2525
I2856
sS'nordstrom_837223.jpg'
p2526
I1570
sS'barneys_503340985.jpg'
p2527
I95
sS'saks_0440480741169.jpg'
p2528
I321
sS'nordstrom_840634.jpg'
p2529
I1583
sS'nordstrom_871284.jpg'
p2530
I2836
sS'barneys_502443591.jpg'
p2531
I18
sS'nordstrom_672957.jpg'
p2532
I249
sS'barneys_503727320.jpg'
p2533
I2247
sS'nordstrom_848703.jpg'
p2534
I1597
sS'nordstrom_890427.jpg'
p2535
I854
sS'saks_0468295269371.jpg'
p2536
I453
sS'nordstrom_838405.jpg'
p2537
I1577
sS'nordstrom_937771_2.jpg'
p2538
I2863
sS'nordstrom_854179.jpg'
p2539
I1607
sS'saks_0448880498041.jpg'
p2540
I396
sS'barneys_503012197.jpg'
p2541
I510
sS'saks_0446634363867.jpg'
p2542
I1932
sS'saks_0400086745429.jpg'
p2543
I2413
sS'saks_0454382429254.jpg'
p2544
I2157
sS'nordstrom_1044539.jpg'
p2545
I1409
sS'nordstrom_77926_4.jpg'
p2546
I754
sS'barneys_503503000.jpg'
p2547
I1204
sS'barneys_503703298.jpg'
p2548
I2243
sS'nordstrom_961264_3.jpg'
p2549
I1694
sS'barneys_502421444.jpg'
p2550
I1129
sS'saks_0452440418066.jpg'
p2551
I2032
sS'saks_0440479556729.jpg'
p2552
I1765
sS'saks_0442327024275.jpg'
p2553
I1912
sS'saks_0442231580249.jpg'
p2554
I3127
sS'barneys_503779282.jpg'
p2555
I1279
sS'saks_0452537119906.jpg'
p2556
I2088
sS'saks_0448830005947.jpg'
p2557
I1940
sS'nordstrom_848471.jpg'
p2558
I2796
sS'nordstrom_91068.jpg'
p2559
I872
sS'saks_0441948193728.jpg'
p2560
I1859
sS'barneys_502839616.jpg'
p2561
I48
sS'barneys_503341065.jpg'
p2562
I100
sS'nordstrom_1038848.jpg'
p2563
I1400
sS'saks_0469636858391.jpg'
p2564
I1085
sS'saks_0452597309934.jpg'
p2565
I2131
sS'nordstrom_284871.jpg'
p2566
I1458
sS'saks_0469647653602.jpg'
p2567
I479
sS'barneys_158585079.jpg'
p2568
I1
sS'saks_0437848393207.jpg'
p2569
I3106
sS'nordstrom_804078.jpg'
p2570
I2767
sS'saks_0400086596796.jpg'
p2571
I1722
sS'saks_0471958342281.jpg'
p2572
I2647
sS'saks_0441939120740.jpg'
p2573
I350
sS'barneys_503721266.jpg'
p2574
I2244
sS'saks_0452444510315.jpg'
p2575
I2038
sS'nordstrom_679823.jpg'
p2576
I1507
sS'saks_0440434379202.jpg'
p2577
I1757
sS'barneys_502682519.jpg'
p2578
I506
sS'saks_0445210315894.jpg'
p2579
I386
sS'nordstrom_871795.jpg'
p2580
I2840
sS'barneys_503243022.jpg'
p2581
I76
sS'saks_0441998469606.jpg'
p2582
I1871
sS'nordstrom_1065284.jpg'
p2583
I642
sS'barneys_502533831.jpg'
p2584
I2653
sS'nordstrom_263948.jpg'
p2585
I186
sS'saks_0469638345509.jpg'
p2586
I1089
sS'saks_0441939119058.jpg'
p2587
I1832
sS'nordstrom_840370.jpg'
p2588
I1582
sS'saks_0471941664031.jpg'
p2589
I2644
sS'barneys_503401507.jpg'
p2590
I118
sS'nordstrom_680296.jpg'
p2591
I1509
sS'saks_0441271195826.jpg'
p2592
I1789
sS'saks_0400086946902.jpg'
p2593
I931
sS'nordstrom_814979.jpg'
p2594
I773
sS'nordstrom_796360.jpg'
p2595
I1525
sS'barneys_503847660.jpg'
p2596
I557
sS'barneys_503550399.jpg'
p2597
I159
sS'nordstrom_714059.jpg'
p2598
I731
sS'nordstrom_1036862.jpg'
p2599
I1395
sS'saks_0413445491126.jpg'
p2600
I941
sS'nordstrom_821453.jpg'
p2601
I781
sS'barneys_503543778.jpg'
p2602
I143
sS'saks_0469647611169.jpg'
p2603
I2193
sS'nordstrom_1022667.jpg'
p2604
I2316
sS'nordstrom_1003052.jpg'
p2605
I564
sS'nordstrom_372142_54.jpg'
p2606
I689
sS'nordstrom_910652.jpg'
p2607
I1676
sS'nordstrom_865375.jpg'
p2608
I1634
sS'nordstrom_277451_9.jpg'
p2609
I672
sS'nordstrom_948668_2.jpg'
p2610
I885
sS'saks_0469642478286.jpg'
p2611
I2186
sS'nordstrom_1006492.jpg'
p2612
I1318
sS'nordstrom_670042_1.jpg'
p2613
I2758
sS'saks_0454372321759.jpg'
p2614
I2150
sS'saks_0469637004186.jpg'
p2615
I2179
sS'saks_0452546590192.jpg'
p2616
I2106
sS'saks_0440929073516.jpg'
p2617
I2468
sS'nordstrom_1037366.jpg'
p2618
I2324
sS'nordstrom_826126.jpg'
p2619
I787
sS'nordstrom_1002699.jpg'
p2620
I1301
sS'nordstrom_1035120.jpg'
p2621
I621
sS'saks_0452546731038.jpg'
p2622
I2549
sS'saks_0452546608811.jpg'
p2623
I2116
sS'saks_0448885310010.jpg'
p2624
I2005
sS'nordstrom_94074_6.jpg'
p2625
I311
sS'nordstrom_449900.jpg'
p2626
I217
sS'barneys_502537471.jpg'
p2627
I1136
sS'barneys_503375234.jpg'
p2628
I519
sS'saks_0442037056016.jpg'
p2629
I1880
sS'saks_0442231579755.jpg'
p2630
I3126
sS'barneys_503543746.jpg'
p2631
I142
sS'nordstrom_865288.jpg'
p2632
I2820
sS'saks_0448899081173.jpg'
p2633
I409
sS'nordstrom_972334.jpg'
p2634
I2372
sS'nordstrom_1012316.jpg'
p2635
I1336
sS'saks_0469607320605.jpg'
p2636
I2923
sS'nordstrom_408678.jpg'
p2637
I691
sS'barneys_502734563.jpg'
p2638
I32
sS'barneys_503822752.jpg'
p2639
I2295
sS'nordstrom_474447.jpg'
p2640
I700
sS'saks_0442248159711.jpg'
p2641
I2522
sS'nordstrom_95689_1.jpg'
p2642
I888
sS'nordstrom_1003925.jpg'
p2643
I2968
sS'saks_0454343117947.jpg'
p2644
I1046
sS'nordstrom_664431.jpg'
p2645
I2756
sS'nordstrom_816026.jpg'
p2646
I2774
sS'saks_0441910026764.jpg'
p2647
I336
sS'saks_0452552700233.jpg'
p2648
I2125
sS'nordstrom_13731.jpg'
p2649
I182
sS'nordstrom_701030.jpg'
p2650
I255
sS'saks_0471932393063.jpg'
p2651
I495
sS'saks_0437852860597.jpg'
p2652
I2443
sS'saks_0442047763140.jpg'
p2653
I2894
sS'barneys_502853510.jpg'
p2654
I53
sS'saks_0468237228978.jpg'
p2655
I1063
sS'nordstrom_861188.jpg'
p2656
I812
sS'saks_0452441908818.jpg'
p2657
I2037
sS'saks_0468247699010.jpg'
p2658
I2583
sS'nordstrom_885259.jpg'
p2659
I847
sS'nordstrom_1044910.jpg'
p2660
I1410
sS'saks_0452435882087.jpg'
p2661
I2030
sS'barneys_502818625.jpg'
p2662
I46
sS'nordstrom_885486.jpg'
p2663
I849
sS'barneys_503325262.jpg'
p2664
I516
sS'saks_0441906773207.jpg'
p2665
I1797
sS'barneys_503636617.jpg'
p2666
I1225
sS'saks_0448835693279.jpg'
p2667
I395
sS'nordstrom_909074_4.jpg'
p2668
I2360
sS'saks_0400086697221.jpg'
p2669
I2403
sS'nordstrom_991658.jpg'
p2670
I2881
sS'barneys_503688037.jpg'
p2671
I2235
sS'nordstrom_1038729.jpg'
p2672
I2734
sS'nordstrom_826107.jpg'
p2673
I1554
sS'barneys_503571457.jpg'
p2674
I1218
sS'nordstrom_1014542.jpg'
p2675
I1342
sS'nordstrom_998695.jpg'
p2676
I1719
sS'nordstrom_744568.jpg'
p2677
I744
sS'saks_0469642220663.jpg'
p2678
I2613
sS'nordstrom_953007.jpg'
p2679
I2366
sS'saks_0400086968741.jpg'
p2680
I1748
sS'barneys_503208487.jpg'
p2681
I1169
sS'saks_0469636929183.jpg'
p2682
I2932
sS'saks_0459236029475.jpg'
p2683
I2163
sS'saks_0469641459163.jpg'
p2684
I476
sS'nordstrom_796240.jpg'
p2685
I1524
sS'nordstrom_156037.jpg'
p2686
I1452
sS'nordstrom_1001078_1.jpg'
p2687
I1290
sS'nordstrom_896963.jpg'
p2688
I2857
sS'saks_0437845536539.jpg'
p2689
I2433
sS'nordstrom_894730.jpg'
p2690
I2853
sS'barneys_503071113.jpg'
p2691
I2668
sS'barneys_503418052.jpg'
p2692
I1190
sS'saks_0468237238151.jpg'
p2693
I2578
sS'nordstrom_659362.jpg'
p2694
I247
sS'saks_0452537131533.jpg'
p2695
I2099
sS'nordstrom_994283.jpg'
p2696
I3096
sS'saks_0446635516132.jpg'
p2697
I2541
sS'barneys_503366100.jpg'
p2698
I104
sS'saks_0448847957116.jpg'
p2699
I1977
sS'nordstrom_960306.jpg'
p2700
I1690
sS'nordstrom_859481.jpg'
p2701
I1618
sS'saks_0454378757088.jpg'
p2702
I2152
sS'nordstrom_811150.jpg'
p2703
I3004
sS'nordstrom_865339.jpg'
p2704
I817
sS'nordstrom_872024.jpg'
p2705
I830
sS'nordstrom_1018997.jpg'
p2706
I2723
sS'saks_0442231591412.jpg'
p2707
I2518
sS'nordstrom_707627.jpg'
p2708
I729
sS'barneys_503400768.jpg'
p2709
I520
sS'saks_0442231578840.jpg'
p2710
I2517
sS'nordstrom_371884.jpg'
p2711
I685
sS'nordstrom_1026486.jpg'
p2712
I602
sS'barneys_503374881.jpg'
p2713
I106
sS'saks_0448885152320.jpg'
p2714
I1025
sS'saks_0437837711081.jpg'
p2715
I3105
sS'nordstrom_841496.jpg'
p2716
I1585
sS'barneys_158585086.jpg'
p2717
I3
sS'saks_0452546634339.jpg'
p2718
I3154
sS'barneys_503177280.jpg'
p2719
I2208
sS'nordstrom_855594.jpg'
p2720
I804
sS'nordstrom_825209_1.jpg'
p2721
I1550
sS'saks_0413445491850.jpg'
p2722
I943
sS'nordstrom_1022459.jpg'
p2723
I1358
sS'nordstrom_960299.jpg'
p2724
I889
sS'saks_0400086817743.jpg'
p2725
I1747
sS'saks_0469644687983.jpg'
p2726
I2188
sS'saks_0469676955562.jpg'
p2727
I485
sS'saks_0400086623348.jpg'
p2728
I313
sS'saks_0441931070937.jpg'
p2729
I1816
sS'nordstrom_366151.jpg'
p2730
I2986
sS'nordstrom_343843.jpg'
p2731
I2341
sS'saks_0448847957628.jpg'
p2732
I1020
sS'saks_0452546611323.jpg'
p2733
I2117
sS'nordstrom_1013695.jpg'
p2734
I574
sS'nordstrom_79355.jpg'
p2735
I277
sS'barneys_502192412.jpg'
p2736
I1128
sS'barneys_502731379.jpg'
p2737
I1152
sS'saks_0452546643768.jpg'
p2738
I421
sS'nordstrom_871879.jpg'
p2739
I2844
sS'saks_0469644400896.jpg'
p2740
I2627
sS'nordstrom_514451_1.jpg'
p2741
I704
sS'nordstrom_893072.jpg'
p2742
I1658
sS'saks_0440485822436.jpg'
p2743
I2461
sS'nordstrom_814101.jpg'
p2744
I1543
sS'barneys_159016197.jpg'
p2745
I1108
sS'nordstrom_869950.jpg'
p2746
I823
sS'nordstrom_678416.jpg'
p2747
I253
sS'nordstrom_982902.jpg'
p2748
I909
sS'barneys_503341049.jpg'
p2749
I99
sS'nordstrom_1002977_2.jpg'
p2750
I2966
sS'nordstrom_779199_1.jpg'
p2751
I751
sS'nordstrom_968723_2.jpg'
p2752
I892
sS'saks_0469696687542.jpg'
p2753
I491
sS'nordstrom_1029016.jpg'
p2754
I609
sS'barneys_503765956.jpg'
p2755
I2691
sS'nordstrom_887632.jpg'
p2756
I851
sS'barneys_503107159.jpg'
p2757
I65
sS'nordstrom_363299.jpg'
p2758
I1470
sS'barneys_502530048.jpg'
p2759
I1134
sS'barneys_503688285.jpg'
p2760
I2238
sS'barneys_502191916.jpg'
p2761
I503
sS'saks_0442314062570.jpg'
p2762
I2900
sS'nordstrom_725478.jpg'
p2763
I1519
sS'saks_0441997565675.jpg'
p2764
I1870
sS'nordstrom_884800.jpg'
p2765
I1654
sS'nordstrom_844208.jpg'
p2766
I798
sS'nordstrom_75846.jpg'
p2767
I272
sS'nordstrom_1023340.jpg'
p2768
I594
sS'nordstrom_1038525.jpg'
p2769
I2731
sS'nordstrom_844181.jpg'
p2770
I796
sS'nordstrom_1021603.jpg'
p2771
I2724
sS'nordstrom_1033476.jpg'
p2772
I1382
sS'saks_0442314067889.jpg'
p2773
I3135
sS'nordstrom_871065.jpg'
p2774
I826
sS'nordstrom_165378.jpg'
p2775
I2334
sS'saks_0441995197915.jpg'
p2776
I355
sS'saks_0441929222584.jpg'
p2777
I2483
sS'barneys_503730082.jpg'
p2778
I553
sS'saks_0448881401095.jpg'
p2779
I401
sS'saks_0469675695568.jpg'
p2780
I1101
sS'nordstrom_348334.jpg'
p2781
I1467
sS'saks_0441213520648.jpg'
p2782
I2477
sS'saks_0448835644608.jpg'
p2783
I1964
sS'nordstrom_1006525.jpg'
p2784
I1320
sS'barneys_503537645.jpg'
p2785
I533
sS'nordstrom_466839.jpg'
p2786
I230
sS'nordstrom_850584.jpg'
p2787
I3029
sS'nordstrom_311697.jpg'
p2788
I197
sS'saks_0441923739552.jpg'
p2789
I986
sS'nordstrom_717076.jpg'
p2790
I734
sS'nordstrom_842804.jpg'
p2791
I3022
sS'nordstrom_553612.jpg'
p2792
I708
sS'nordstrom_800085_4.jpg'
p2793
I282
sS'saks_0441946310332.jpg'
p2794
I2501
sS'nordstrom_999827_4.jpg'
p2795
I2390
sS'saks_0441930711015.jpg'
p2796
I344
sS'barneys_502845183.jpg'
p2797
I50
sS'nordstrom_938486.jpg'
p2798
I2866
sS'barneys_503402420.jpg'
p2799
I120
sS'nordstrom_804472.jpg'
p2800
I1532
sS'nordstrom_472702.jpg'
p2801
I232
sS'saks_0452428816280.jpg'
p2802
I2546
sS'barneys_502754581.jpg'
p2803
I39
sS'saks_0442074534485.jpg'
p2804
I1887
sS'barneys_503565580.jpg'
p2805
I1215
sS'saks_0468237235525.jpg'
p2806
I3173
sS'saks_0400086660137.jpg'
p2807
I2401
sS'saks_0469607613554.jpg'
p2808
I457
sS'nordstrom_1067982.jpg'
p2809
I643
sS'saks_0437821368062.jpg'
p2810
I2418
sS'nordstrom_608560_2.jpg'
p2811
I2995
sS'nordstrom_498340.jpg'
p2812
I239
sS'nordstrom_489416.jpg'
p2813
I2747
sS'nordstrom_466129.jpg'
p2814
I698
sS'nordstrom_1032593.jpg'
p2815
I616
sS'saks_0469609756327.jpg'
p2816
I459
sS'nordstrom_826253.jpg'
p2817
I3008
sS'barneys_503765828.jpg'
p2818
I2272
sS'nordstrom_1002702.jpg'
p2819
I1302
sS'saks_0454336592997.jpg'
p2820
I2144
sS'nordstrom_1074102.jpg'
p2821
I1446
sS'saks_0442314034294.jpg'
p2822
I1000
sS'barneys_503376505.jpg'
p2823
I113
sS'nordstrom_1031394.jpg'
p2824
I1374
sS'nordstrom_827701.jpg'
p2825
I2781
sS'nordstrom_894730_1.jpg'
p2826
I2854
sS'nordstrom_1052754.jpg'
p2827
I633
sS'barneys_503642579.jpg'
p2828
I1232
sS'nordstrom_649380.jpg'
p2829
I1498
sS'nordstrom_829113_1.jpg'
p2830
I1558
sS'barneys_503814800.jpg'
p2831
I2962
sS'barneys_503325134.jpg'
p2832
I84
sS'saks_0448876539017.jpg'
p2833
I1988
sS'nordstrom_465287.jpg'
p2834
I227
sS'saks_0442314047829.jpg'
p2835
I1907
sS'nordstrom_328582.jpg'
p2836
I1463
sS'nordstrom_1014258.jpg'
p2837
I2310
sS'nordstrom_344099.jpg'
p2838
I677
sS'saks_0468298322523.jpg'
p2839
I2919
sS'saks_0468248439134.jpg'
p2840
I3174
sS'nordstrom_896115.jpg'
p2841
I306
sS'saks_0400086712628.jpg'
p2842
I2409
sS'nordstrom_800135.jpg'
p2843
I2766
sS'saks_0437849448647.jpg'
p2844
I2437
sS'saks_0441929223192.jpg'
p2845
I2484
sS'nordstrom_1064962.jpg'
p2846
I641
sS'nordstrom_1009065.jpg'
p2847
I2970
sS'nordstrom_1065246.jpg'
p2848
I1441
sS'saks_0469642870455.jpg'
p2849
I2618
sS'saks_0448847957321.jpg'
p2850
I1978
sS'nordstrom_737202.jpg'
p2851
I263
sS'saks_0454372285815.jpg'
p2852
I2149
sS'barneys_503079111.jpg'
p2853
I511
sS'saks_0454318324011.jpg'
p2854
I2138
sS'nordstrom_863946.jpg'
p2855
I815
sS'nordstrom_854508.jpg'
p2856
I2810
sS'saks_0400086643951.jpg'
p2857
I1731
sS'saks_0441944775973.jpg'
p2858
I2500
sS'saks_0469648993332.jpg'
p2859
I2634
sS'barneys_502682962.jpg'
p2860
I1147
sS'nordstrom_1030872.jpg'
p2861
I612
sS'nordstrom_22378.jpg'
p2862
I660
sS'nordstrom_630552.jpg'
p2863
I722
sS'nordstrom_394271.jpg'
p2864
I1473
sS'barneys_502816398.jpg'
p2865
I43
sS'nordstrom_825958.jpg'
p2866
I1552
sS'barneys_503573647.jpg'
p2867
I1220
sS'saks_0452546639396.jpg'
p2868
I2918
sS'barneys_502735529.jpg'
p2869
I34
sS'saks_0440931290826.jpg'
p2870
I974
sS'nordstrom_972735.jpg'
p2871
I2374
sS'nordstrom_1028922.jpg'
p2872
I1366
sS'nordstrom_179223_1.jpg'
p2873
I655
sS'barneys_503779425.jpg'
p2874
I1281
sS'nordstrom_986480_15.jpg'
p2875
I2877
sS'nordstrom_892449.jpg'
p2876
I858
sS'nordstrom_859549.jpg'
p2877
I1623
sS'nordstrom_868718.jpg'
p2878
I3058
sS'saks_0437844902939.jpg'
p2879
I2430
sS'saks_0441931070647.jpg'
p2880
I1815
sS'nordstrom_1023772.jpg'
p2881
I599
sS'barneys_503687879.jpg'
p2882
I2952
sS'saks_0400086574014.jpg'
p2883
I2392
sS'nordstrom_999636.jpg'
p2884
I2883
sS'nordstrom_838567.jpg'
p2885
I1578
sS'saks_0400086899503.jpg'
p2886
I929
sS'nordstrom_1013862.jpg'
p2887
I577
sS'nordstrom_833597.jpg'
p2888
I2788
sS'nordstrom_1048437.jpg'
p2889
I2982
sS'saks_0469636930141.jpg'
p2890
I1087
sS'saks_0469640077399.jpg'
p2891
I3182
sS'nordstrom_1024193.jpg'
p2892
I1359
sS'barneys_503743648.jpg'
p2893
I2263
sS'saks_0469692577175.jpg'
p2894
I2946
sS'barneys_503208213.jpg'
p2895
I1167
sS'nordstrom_638461_3.jpg'
p2896
I725
sS'nordstrom_884757.jpg'
p2897
I1653
sS'saks_0448835618210.jpg'
p2898
I1941
sS'saks_0437837699365.jpg'
p2899
I2422
sS'nordstrom_661855_2.jpg'
p2900
I1501
sS'nordstrom_1018514.jpg'
p2901
I2718
sS'nordstrom_870096.jpg'
p2902
I3064
sS'barneys_503573869.jpg'
p2903
I1224
sS'barneys_503549609.jpg'
p2904
I1213
sS'barneys_503246073.jpg'
p2905
I1175
sS'saks_0441944555872.jpg'
p2906
I1839
sS'nordstrom_668106.jpg'
p2907
I2757
sS'nordstrom_737959.jpg'
p2908
I264
sS'saks_0454318334140.jpg'
p2909
I2563
sS'nordstrom_179223.jpg'
p2910
I654
sS'barneys_502750723.jpg'
p2911
I37
sS'nordstrom_478762.jpg'
p2912
I233
sS'barneys_503345265.jpg'
p2913
I1186
sS'barneys_503376834.jpg'
p2914
I114
sS'saks_0441213525827.jpg'
p2915
I1780
sS'barneys_501629117.jpg'
p2916
I1119
sS'saks_0442003448821.jpg'
p2917
I362
sS'barneys_503463341.jpg'
p2918
I2681
sS'barneys_503291920.jpg'
p2919
I515
sS'nordstrom_620379_1.jpg'
p2920
I1494
sS'nordstrom_664038.jpg'
p2921
I2755
sS'saks_0453438306617.jpg'
p2922
I2552
sS'saks_0442050720802.jpg'
p2923
I371
sS'saks_0448876541249.jpg'
p2924
I1989
sS'saks_0437837700856.jpg'
p2925
I2424
sS'nordstrom_383434_1.jpg'
p2926
I2344
sS'nordstrom_848541.jpg'
p2927
I800
sS'nordstrom_1032811.jpg'
p2928
I617
sS'saks_0442048478517.jpg'
p2929
I1886
sS'saks_0469642465811.jpg'
p2930
I2184
sS'nordstrom_877137.jpg'
p2931
I1642
sS'barneys_502604624.jpg'
p2932
I20
sS'saks_0441944775027.jpg'
p2933
I1845
sS'saks_0469640089019.jpg'
p2934
I473
sS'nordstrom_820719.jpg'
p2935
I287
sS'barneys_503455825.jpg'
p2936
I1191
sS'barneys_502717404.jpg'
p2937
I24
sS'barneys_502818609.jpg'
p2938
I45
sS'nordstrom_1042085.jpg'
p2939
I178
sS'nordstrom_859413.jpg'
p2940
I3039
sS'nordstrom_949677.jpg'
p2941
I2870
sS'saks_0442235936189.jpg'
p2942
I2897
sS'nordstrom_994765.jpg'
p2943
I1716
sS'nordstrom_394486_2.jpg'
p2944
I2989
sS'nordstrom_1034539.jpg'
p2945
I1388
sS'barneys_503486907.jpg'
p2946
I129
sS'barneys_500382483.jpg'
p2947
I1110
sS'saks_0442231587804.jpg'
p2948
I1899
sS'saks_0469644326165.jpg'
p2949
I2620
sS'saks_0469686190458.jpg'
p2950
I1103
sS'saks_0445234988531.jpg'
p2951
I1925
sS'barneys_503687089.jpg'
p2952
I2228
sS'barneys_503745828.jpg'
p2953
I1269
sS'saks_0442037199485.jpg'
p2954
I2509
sS'nordstrom_871857.jpg'
p2955
I2843
sS'barneys_503642327.jpg'
p2956
I1227
sS'nordstrom_614054_3.jpg'
p2957
I2998
sS'barneys_503778864.jpg'
p2958
I2285
sS'nordstrom_1033712.jpg'
p2959
I1383
sS'barneys_502698952.jpg'
p2960
I21
sS'barneys_503558218.jpg'
p2961
I536
sS'barneys_502708121.jpg'
p2962
I2657
sS'nordstrom_813121.jpg'
p2963
I2772
sS'barneys_502817737.jpg'
p2964
I2663
sS'nordstrom_1006463.jpg'
p2965
I1316
sS'nordstrom_894634.jpg'
p2966
I2852
sS'saks_0469692134378.jpg'
p2967
I1104
sS'nordstrom_1037376.jpg'
p2968
I2327
sS'saks_0441949458222.jpg'
p2969
I1862
sS'barneys_503662694.jpg'
p2970
I1262
sS'nordstrom_1057139.jpg'
p2971
I636
sS'saks_0452503486315.jpg'
p2972
I2078
sS'nordstrom_601266.jpg'
p2973
I2752
sS'nordstrom_876535.jpg'
p2974
I831
sS'saks_0441946098315.jpg'
p2975
I1850
sS'nordstrom_304139.jpg'
p2976
I673
sS'saks_0459235968348.jpg'
p2977
I444
sS'nordstrom_814424.jpg'
p2978
I772
sS'saks_0400086643910.jpg'
p2979
I1729
sS'saks_0459292404513.jpg'
p2980
I448
sS'saks_0441206285332.jpg'
p2981
I977
sS'nordstrom_472142.jpg'
p2982
I231
sS'nordstrom_627350.jpg'
p2983
I721
sS'saks_0440929074506.jpg'
p2984
I2888
sS'nordstrom_315694.jpg'
p2985
I199
sS'barneys_503592264.jpg'
p2986
I165
sS'nordstrom_999831.jpg'
p2987
I2391
sS'saks_0442314064086.jpg'
p2988
I3134
sS'saks_0452403732345.jpg'
p2989
I2012
sS'nordstrom_752938.jpg'
p2990
I746
sS'nordstrom_821460.jpg'
p2991
I782
sS'saks_0469620469466.jpg'
p2992
I2930
sS'nordstrom_982558_5.jpg'
p2993
I1706
sS'saks_0440927831965.jpg'
p2994
I3107
sS'saks_0452597286471.jpg'
p2995
I2130
sS'barneys_502729396.jpg'
p2996
I1149
sS'saks_0452446231218.jpg'
p2997
I3149
sS'saks_0442012961373.jpg'
p2998
I1876
sS'saks_0442092790122.jpg'
p2999
I376
sS'barneys_503559100.jpg'
p3000
I162
sS'barneys_503776692.jpg'
p3001
I2279
sS'nordstrom_11911.jpg'
p3002
I1451
sS'saks_0459278142996.jpg'
p3003
I447
sS'saks_0441295508411.jpg'
p3004
I981
sS'nordstrom_277451_3.jpg'
p3005
I671
sS'nordstrom_804469.jpg'
p3006
I1531
sS'nordstrom_889094.jpg'
p3007
I3084
sS'nordstrom_1007183.jpg'
p3008
I568
sS'nordstrom_400567_1.jpg'
p3009
I1474
sS'saks_0468248698340.jpg'
p3010
I2586
sS'barneys_503573778.jpg'
p3011
I1222
sS'saks_0437830899229.jpg'
p3012
I954
sS'nordstrom_1059257.jpg'
p3013
I1438
sS'saks_0456737084187.jpg'
p3014
I3162
sS'barneys_503694529.jpg'
p3015
I2239
sS'nordstrom_1006480.jpg'
p3016
I1317
sS'nordstrom_902817.jpg'
p3017
I1669
sS'barneys_503549317.jpg'
p3018
I151
sS'saks_0441947005442.jpg'
p3019
I1851
sS'barneys_502160440.jpg'
p3020
I16
sS'saks_0441941867466.jpg'
p3021
I3118
sS'nordstrom_607123.jpg'
p3022
I717
sS'saks_0452441860093.jpg'
p3023
I2034
sS'nordstrom_838395.jpg'
p3024
I1576
sS'saks_0400086630208.jpg'
p3025
I2399
sS'saks_0440434376102.jpg'
p3026
I2449
sS'saks_0468248707165.jpg'
p3027
I2590
sS'barneys_503573712.jpg'
p3028
I164
sS'saks_0454318327562.jpg'
p3029
I2140
sS'saks_0448835696324.jpg'
p3030
I2910
sS'nordstrom_933604.jpg'
p3031
I875
sS'nordstrom_1012328.jpg'
p3032
I2971
sS'nordstrom_876576.jpg'
p3033
I1640
sS'nordstrom_917487.jpg'
p3034
I1678
sS'saks_0400086630170.jpg'
p3035
I2397
sS'barneys_503729997.jpg'
p3036
I2250
sS'saks_0400086643934.jpg'
p3037
I1730
sS'nordstrom_841548.jpg'
p3038
I3020
sS'nordstrom_923259.jpg'
p3039
I1681
sS'nordstrom_977704.jpg'
p3040
I2873
sS'nordstrom_1069684.jpg'
p3041
I647
sS'nordstrom_803982.jpg'
p3042
I758
sS'barneys_503543133.jpg'
p3043
I140
sS'saks_0441940756563.jpg'
p3044
I2495
sS'nordstrom_1015489.jpg'
p3045
I585
sS'nordstrom_911877.jpg'
p3046
I1677
sS'barneys_503725035.jpg'
p3047
I2245
sS'nordstrom_851786.jpg'
p3048
I801
sS'nordstrom_1046849.jpg'
p3049
I627
sS'saks_0440929077866.jpg'
p3050
I2469
sS'nordstrom_829088.jpg'
p3051
I1557
sS'saks_0448885229176.jpg'
p3052
I2000
sS'saks_0469640800911.jpg'
p3053
I2935
sS'nordstrom_876548.jpg'
p3054
I832
sS'saks_0441997516998.jpg'
p3055
I358
sS'nordstrom_832506.jpg'
p3056
I3012
sS'saks_0469648993561.jpg'
p3057
I2635
sS'barneys_503764209.jpg'
p3058
I2688
sS'saks_0471932391779.jpg'
p3059
I2643
sS'nordstrom_1065286.jpg'
p3060
I2984
sS'nordstrom_777647.jpg'
p3061
I750
sS'saks_0448881796047.jpg'
p3062
I1997
sS'nordstrom_1034793.jpg'
p3063
I2975
sS'nordstrom_992727_2.jpg'
p3064
I914
sS'saks_0441940757980.jpg'
p3065
I1834
sS'nordstrom_888064.jpg'
p3066
I3080
sS'saks_0452502440929.jpg'
p3067
I2075
sS'nordstrom_1073073.jpg'
p3068
I1445
sS'nordstrom_465287_1.jpg'
p3069
I228
sS'nordstrom_1013509.jpg'
p3070
I2306
sS'nordstrom_14357.jpg'
p3071
I185
sS'nordstrom_736835.jpg'
p3072
I262
sS'saks_0469642470051.jpg'
p3073
I2185
sS'nordstrom_668716.jpg'
p3074
I1505
sS'saks_0441944782452.jpg'
p3075
I1848
sS'barneys_503729775.jpg'
p3076
I2248
sS'barneys_503549883.jpg'
p3077
I155
sS'nordstrom_838238.jpg'
p3078
I299
sS'saks_0441944555407.jpg'
p3079
I992
sS'saks_0441944557944.jpg'
p3080
I1841
sS'nordstrom_948668.jpg'
p3081
I884
sS'saks_0469636951122.jpg'
p3082
I2177
sS'nordstrom_326805_7.jpg'
p3083
I204
sS'barneys_503502726.jpg'
p3084
I530
sS'barneys_503847783.jpg'
p3085
I2297
sS'saks_0442235934246.jpg'
p3086
I1902
sS'barneys_503375314.jpg'
p3087
I111
sS'nordstrom_77926_3.jpg'
p3088
I753
sS'nordstrom_1018584.jpg'
p3089
I2720
sS'barneys_503823278.jpg'
p3090
I2296
sS'nordstrom_1001089.jpg'
p3091
I1291
sS'nordstrom_1013372.jpg'
p3092
I2303
sS'saks_0413406325088.jpg'
p3093
I935
sS'nordstrom_865807.jpg'
p3094
I2822
sS'saks_0400086701023.jpg'
p3095
I1735
sS'nordstrom_1025611.jpg'
p3096
I1361
sS'saks_0441224379822.jpg'
p3097
I1786
sS'nordstrom_999806_1.jpg'
p3098
I2387
sS'nordstrom_844162.jpg'
p3099
I3024
sS'saks_0442044719379.jpg'
p3100
I2512
sS'barneys_503688019.jpg'
p3101
I2234
sS'nordstrom_1048401.jpg'
p3102
I2330
sS'saks_0448835664316.jpg'
p3103
I1967
sS'nordstrom_1006517.jpg'
p3104
I1319
sS'saks_0469669659323.jpg'
p3105
I1099
sS'saks_0452435882414.jpg'
p3106
I2031
sS'saks_0469674044367.jpg'
p3107
I1100
sS'saks_0400086701328.jpg'
p3108
I1736
sS'saks_0462234484085.jpg'
p3109
I3166
sS'saks_0456737082985.jpg'
p3110
I3161
sS'barneys_503375009.jpg'
p3111
I110
sS'saks_0452546630775.jpg'
p3112
I2123
sS'barneys_503785253.jpg'
p3113
I2291
sS'saks_0441941860290.jpg'
p3114
I2496
sS'saks_0441941871814.jpg'
p3115
I990
sS'saks_0469614372529.jpg'
p3116
I3177
sS'saks_0448835621623.jpg'
p3117
I1944
sS'barneys_502731063.jpg'
p3118
I507
sS'barneys_503502742.jpg'
p3119
I531
sS'barneys_502979111.jpg'
p3120
I1156
sS'nordstrom_797664.jpg'
p3121
I279
sS'saks_0400086682810.jpg'
p3122
I924
sS'saks_0469637030772.jpg'
p3123
I3181
sS'saks_0442084627641.jpg'
p3124
I1888
sS'nordstrom_855489.jpg'
p3125
I3035
sS'saks_0454383168824.jpg'
p3126
I439
sS'barneys_503274153.jpg'
p3127
I81
sS'saks_0454382426413.jpg'
p3128
I2153
sS'saks_0440434374979.jpg'
p3129
I2446
sS'saks_0441213530081.jpg'
p3130
I2479
sS'barneys_503177103.jpg'
p3131
I2677
sS'saks_0469633204177.jpg'
p3132
I2172
sS'nordstrom_110039_1.jpg'
p3133
I651
sS'nordstrom_1028921.jpg'
p3134
I608
sS'barneys_501664332.jpg'
p3135
I12
sS'saks_0454318296462.jpg'
p3136
I2561
sS'barneys_503339797.jpg'
p3137
I1182
sS'saks_0442036168376.jpg'
p3138
I2508
sS'nordstrom_865371.jpg'
p3139
I819
sS'saks_0448885153723.jpg'
p3140
I1026
sS'saks_0440445392993.jpg'
p3141
I1763
sS'nordstrom_865283.jpg'
p3142
I2819
sS'saks_0441910556841.jpg'
p3143
I1800
sS'barneys_503592280.jpg'
p3144
I166
sS'saks_0469699362002.jpg'
p3145
I2641
sS'nordstrom_851534.jpg'
p3146
I1604
sS'saks_0452537125280.jpg'
p3147
I2095
sS'nordstrom_888505.jpg'
p3148
I3081
sS'nordstrom_410597.jpg'
p3149
I1478
sS'saks_0402320526510.jpg'
p3150
I1750
sS'nordstrom_1001267_1.jpg'
p3151
I1295
sS'barneys_503340169.jpg'
p3152
I91
sS'saks_0469695907849.jpg'
p3153
I1105
sS'nordstrom_1030128.jpg'
p3154
I2317
sS'barneys_503544903.jpg'
p3155
I148
sS'saks_0452502448017.jpg'
p3156
I2077
sS'nordstrom_552870_3.jpg'
p3157
I707
sS'nordstrom_1032686.jpg'
p3158
I1377
sS'saks_0413445492703.jpg'
p3159
I944
sS'saks_0437844903356.jpg'
p3160
I966
sS'saks_0469600025842.jpg'
p3161
I1073
sS'saks_0413429441536.jpg'
p3162
I937
sS'nordstrom_353642_2.jpg'
p3163
I681
sS'saks_0452537114024.jpg'
p3164
I2080
sS'nordstrom_1043660.jpg'
p3165
I2981
sS'nordstrom_1026431.jpg'
p3166
I1363
sS'barneys_503732791.jpg'
p3167
I2254
sS'barneys_503642611.jpg'
p3168
I1234
sS'nordstrom_1056536.jpg'
p3169
I635
sS'nordstrom_707920.jpg'
p3170
I1517
sS'saks_0441201103679.jpg'
p3171
I1775
sS'nordstrom_811816.jpg'
p3172
I1537
sS'barneys_502533895.jpg'
p3173
I2655
sS'saks_0442248156130.jpg'
p3174
I2520
sS'nordstrom_885417.jpg'
p3175
I848
sS'saks_0454318293416.jpg'
p3176
I3157
sS'nordstrom_773775_1.jpg'
p3177
I749
sS'saks_0462277970095.jpg'
p3178
I1056
sS'saks_0448863345300.jpg'
p3179
I1983
sS'saks_0469679689020.jpg'
p3180
I486
sS'nordstrom_826115.jpg'
p3181
I1555
sS'nordstrom_991643.jpg'
p3182
I2880
sS'nordstrom_412599.jpg'
p3183
I1480
sS'nordstrom_844160.jpg'
p3184
I3023
sS'saks_0441933196031.jpg'
p3185
I1819
sS'nordstrom_837108.jpg'
p3186
I1567
s.